LX51 LINKER/LOCATER V4.47a                                                              03/27/2015  10:38:55  PAGE 1


LX51 LINKER/LOCATER V4.47a, INVOKED BY:
C:\KEIL\C51\BIN\LX51.EXE .\output\usb.obj, .\output\audio.obj, .\output\int.obj, .\output\io.obj, .\output\main.obj, .\o
>> utput\request.obj, .\output\dscr.obj, .\output\STARTUP.obj, ..\..\CM65xxB-1\CM65xxB-1.LIB TO .\output\cm65xxfw CLASSE
>> S (CODE (C:0X8000-C:0XBFFF), CONST (C:0X8000-C:0XBFFF), XDATA_EXTMEM (X:0X0A60-X:0X0BDF)) SEGMENTS (?STACK (D:0XE9), 
>> ?PR?INT0_ISR?INT (C:0X8000), ?PR?TIMER0_ISR?INT (C:0X8003), ?PR?INT1_ISR?INT (C:0X8006), ?PR?TIMER1_ISR?INT (C:0X8009
>> ), ?PR?UART_ISR?INT (C:0X800C), ?PR?MAIN?MAIN (C:0X8012))


CPU MODE:     8051 MODE
MEMORY MODEL: SMALL


INPUT MODULES INCLUDED:
  .\output\usb.obj (USB)
         COMMENT TYPE 0: C51 V9.02
  .\output\audio.obj (AUDIO)
         COMMENT TYPE 0: C51 V9.02
  .\output\int.obj (INT)
         COMMENT TYPE 0: C51 V9.02
  .\output\io.obj (IO)
         COMMENT TYPE 0: C51 V9.02
  .\output\main.obj (MAIN)
         COMMENT TYPE 0: C51 V9.02
  .\output\request.obj (REQUEST)
         COMMENT TYPE 0: C51 V9.02
  .\output\dscr.obj (DSCR)
         COMMENT TYPE 1: A51 / ASM51 Assembler
  .\output\STARTUP.obj (?C_STARTUP)
         COMMENT TYPE 1: A51 / ASM51 Assembler
  ..\..\CM65xxB-1\CM65xxB-1.LIB (PERI_LIB)
         COMMENT TYPE 0: C51 V8.05a
  ..\..\CM65xxB-1\CM65xxB-1.LIB (AUDIO_LIB)
         COMMENT TYPE 0: C51 V8.05a
  ..\..\CM65xxB-1\CM65xxB-1.LIB (IO_LIB)
         COMMENT TYPE 0: C51 V8.05a
  ..\..\CM65xxB-1\CM65xxB-1.LIB (MAIN_LIB)
         COMMENT TYPE 0: C51 V8.05a
  C:\KEIL\C51\LIB\C51S.LIB (?C?CLDPTR)
         COMMENT TYPE 1: A51 / ASM51 Assembler
  C:\KEIL\C51\LIB\C51S.LIB (?C?CLDOPTR)
         COMMENT TYPE 1: A51 / ASM51 Assembler
  C:\KEIL\C51\LIB\C51S.LIB (?C?CSTPTR)
         COMMENT TYPE 1: A51 / ASM51 Assembler
  C:\KEIL\C51\LIB\C51S.LIB (?C?CSTOPTR)
         COMMENT TYPE 1: A51 / ASM51 Assembler
  C:\KEIL\C51\LIB\C51S.LIB (?C?IMUL)
         COMMENT TYPE 1: A51 / ASM51 Assembler
  C:\KEIL\C51\LIB\C51S.LIB (?C?OFFXADD)
         COMMENT TYPE 1: A51 / ASM51 Assembler
  C:\KEIL\C51\LIB\C51S.LIB (?C?PLDIIDATA)
         COMMENT TYPE 1: A51 / ASM51 Assembler
  C:\KEIL\C51\LIB\C51S.LIB (?C?PLDCODE)
         COMMENT TYPE 1: A51 / ASM51 Assembler
  C:\KEIL\C51\LIB\C51S.LIB (?C?CCASE)
         COMMENT TYPE 1: A51 / ASM51 Assembler
  C:\KEIL\C51\LIB\C51S.LIB (?C?ICALL)
         COMMENT TYPE 1: A51 / ASM51 Assembler


ACTIVE MEMORY CLASSES OF MODULE:  .\output\cm65xxfw (USB)

BASE        START       END         USED      MEMORY CLASS
==========================================================
C:000000H   C:008000H   C:00BFFFH   0021F9H   CODE
C:000000H   C:008000H   C:00BFFFH   0000C3H   CONST
X:000000H   X:000A60H   X:000BDFH   000015H   XDATA_EXTMEM
LX51 LINKER/LOCATER V4.47a                                                            03/27/2015  10:38:55  PAGE 2


I:000000H   I:000000H   I:00007FH   000064H   DATA
I:000020H.0 I:000020H.0 I:00002FH.7 000001H.5 BIT
I:000000H   I:000000H   I:0000FFH   000058H   IDATA
X:000000H   X:000000H   X:00FFFFH   0000B0H   XDATA


MEMORY MAP OF MODULE:  .\output\cm65xxfw (USB)


START     STOP      LENGTH    ALIGN  RELOC    MEMORY CLASS   SEGMENT NAME
=========================================================================

* * * * * * * * * * *   D A T A   M E M O R Y   * * * * * * * * * * * * *
000000H   000007H   000008H   ---    AT..     DATA           "REG BANK 0"
000008H   00000FH   000008H   ---    AT..     DATA           "REG BANK 1"
000010H   00001CH   00000DH   BYTE   UNIT     DATA           ?DT?USB
00001DH   00001FH   000003H   BYTE   UNIT     DATA           ?DT?AUDIO
000020H.0 000020H.5 000000H.6 BIT    UNIT     BIT            ?BI?MAIN
000020H.6 000021H.3 000000H.6 BIT    UNIT     BIT            _BIT_GROUP_
000021H.4 000021H.4 000000H.1 BIT    UNIT     BIT            ?BI?MAIN_LIB
000021H.5 000021H   000000H.3 ---    ---      **GAP**
000022H   000052H   000031H   BYTE   UNIT     DATA           ?DT?MAIN
000053H   00005AH   000008H   BYTE   UNIT     DATA           _DATA_GROUP_
00005BH   00005FH   000005H   BYTE   UNIT     DATA           ?DT?REQUEST
000060H   000061H   000002H   BYTE   UNIT     DATA           ?DT?INT
000062H   000063H   000002H   BYTE   UNIT     DATA           ?DT?PERI_LIB
000064H   000064H   000001H   BYTE   UNIT     DATA           ?DT?HANDLEI2CSLAVE?PERI_LIB
000065H   000066H   000002H   BYTE   UNIT     IDATA          ?ID?PERI_LIB
000067H   000067H   000001H   BYTE   OFFS..   DATA           ?DA?MAIN?0
000068H   00008DH   000026H   BYTE   UNIT     IDATA          ?ID?REQUEST
00008EH   0000A5H   000018H   BYTE   UNIT     IDATA          ?ID?AUDIO
0000A6H   0000A6H   000001H   BYTE   UNIT     IDATA          ?ID?MAIN
0000A7H   0000E8H   000042H   ---    ---      **GAP**
0000E9H   0000FFH   000017H   BYTE   UNIT     IDATA          ?STACK

* * * * * * * * * * *   C O D E   M E M O R Y   * * * * * * * * * * * * *
008000H   008002H   000003H   BYTE   UNIT     CODE           ?PR?INT0_ISR?INT
008003H   008005H   000003H   BYTE   UNIT     CODE           ?PR?TIMER0_ISR?INT
008006H   008008H   000003H   BYTE   UNIT     CODE           ?PR?INT1_ISR?INT
008009H   00800BH   000003H   BYTE   UNIT     CODE           ?PR?TIMER1_ISR?INT
00800CH   00800EH   000003H   BYTE   UNIT     CODE           ?PR?UART_ISR?INT
00800FH   008011H   000003H   ---    OFFS..   CODE           ?CO??C_STARTUP?0
008012H   00808CH   00007BH   BYTE   UNIT     CODE           ?PR?MAIN?MAIN
00808DH   00827FH   0001F3H   BYTE   UNIT     CODE           ?PR?HANDLEUSBCTRLTRANSFER?USB
008280H   00835FH   0000E0H   BYTE   UNIT     CODE           ?PR?TACKLEAUDIOSTREAM?AUDIO
008360H   00843FH   0000E0H   BYTE   UNIT     CODE           ?C?LIB_CODE
008440H   00851DH   0000DEH   BYTE   UNIT     CODE           ?PR?ORIGINFEATUREVOLUME?AUDIO
00851EH   0085FBH   0000DEH   BYTE   UNIT     CODE           ?PR?HANDLETIMER0ISR?INT
0085FCH   0086CCH   0000D1H   BYTE   UNIT     CODE           ?PR?ORIGINSETSELECTOR?AUDIO
0086CDH   00879CH   0000D0H   BYTE   UNIT     CODE           ?PR?HANDLEI2CSLAVE?PERI_LIB
00879DH   008867H   0000CBH   BYTE   UNIT     CODE           ?PR?TACKLEGETDESCRIPTOR?REQUEST
008868H   00892EH   0000C7H   BYTE   UNIT     CODE           ?PR?ORIGINFEATUREMUTE?AUDIO
00892FH   0089E5H   0000B7H   BYTE   UNIT     CODE           ?PR?ORIGINGPI?MAIN
0089E6H   008A98H   0000B3H   BYTE   UNIT     CODE           ?PR?HUBINSUSPEND?MAIN_LIB
008A99H   008B3BH   0000A3H   BYTE   UNIT     CODE           ?PR?TACKLEFEATUREVOLUME?AUDIO
008B3CH   008BDAH   00009FH   BYTE   UNIT     CODE           ?PR?PERI_LIB
008BDBH   008C78H   00009EH   BYTE   UNIT     CODE           ?PR?_MODIRRESET?PERI_LIB
008C79H   008CF8H   000080H   BYTE   UNIT     CODE           ?PR?TACKLEHIDGETREPORT?REQUEST
008CF9H   008D74H   00007CH   BYTE   UNIT     CODE           ?PR?TACKLECONTROLREQUEST?REQUEST
008D75H   008DEFH   00007BH   BYTE   UNIT     CODE           ?PR?TACKLEFEATUREMUTE?AUDIO
008DF0H   008E6AH   00007BH   BYTE   UNIT     CODE           ?PR?TACKLEHIDSETREPORTDATA?REQUEST
008E6BH   008EE3H   000079H   BYTE   UNIT     CODE           ?PR?_LED_CONFIG?PERI_LIB
008EE4H   008F5AH   000077H   BYTE   UNIT     CODE           ?PR?TACKLEVENDORCOMMAND?REQUEST
008F5BH   008FCFH   000075H   BYTE   UNIT     CODE           ?PR?RECORDVOLCONTROL?AUDIO_LIB
008FD0H   00903BH   00006CH   BYTE   UNIT     CODE           ?PR?AUDIO
LX51 LINKER/LOCATER V4.47a                                                            03/27/2015  10:38:55  PAGE 3


00903CH   0090A5H   00006AH   BYTE   UNIT     CODE           ?PR?FREQ2CTRLBYTE?AUDIO
0090A6H   009108H   000063H   BYTE   UNIT     CODE           ?PR?REQUEST
009109H   009169H   000061H   BYTE   UNIT     CODE           ?PR?ORIGINRECORDMUTE?AUDIO
00916AH   0091C9H   000060H   BYTE   UNIT     CODE           ?PR?USB
0091CAH   009229H   000060H   BYTE   UNIT     CODE           ?PR?INPUTREPORTDATAREADY?MAIN
00922AH   009288H   00005FH   BYTE   UNIT     CODE           ?PR?AAPATHVOLCONTROL?AUDIO_LIB
009289H   0092E4H   00005CH   BYTE   UNIT     CODE           ?PR?HANDLEUSBRESET?MAIN
0092E5H   00933FH   00005BH   BYTE   UNIT     CODE           ?PR?TACKLESETAUDIOINTERFACE?AUDIO
009340H   00939AH   00005BH   BYTE   UNIT     CODE           ?PR?DELAYANALOGMUTE?MAIN_LIB
00939BH   0093F3H   000059H   BYTE   UNIT     CODE           ?PR?DACCODECRESET?MAIN_LIB
0093F4H   009449H   000056H   BYTE   UNIT     CODE           ?PR?ADCCODECRESET?MAIN_LIB
00944AH   00949EH   000055H   BYTE   UNIT     CODE           ?PR?TACKLEGETSTATUS?REQUEST
00949FH   0094F0H   000052H   BYTE   UNIT     CODE           ?PR?TACKLECLASSCOMMAND?REQUEST
0094F1H   009541H   000051H   BYTE   UNIT     CODE           ?PR?TACKLESELECTOR?AUDIO
009542H   009592H   000051H   BYTE   UNIT     CODE           ?PR?HANDLEUSBRESUME?MAIN
009593H   0095DFH   00004DH   BYTE   UNIT     CODE           ?PR?I2CMASTERWRITE?PERI_LIB
0095E0H   00962BH   00004CH   BYTE   UNIT     CODE           ?PR?CODECRESET?MAIN
00962CH   009677H   00004CH   BYTE   UNIT     CODE           ?PR?VOLUMERESET?MAIN
009678H   0096C3H   00004CH   BYTE   UNIT     CODE           ?PR?I2CMASTERREAD?PERI_LIB
0096C4H   00970FH   00004CH   BYTE   UNIT     CODE           ?PR?PLAYBACKVOLCONTROL?AUDIO_LIB
009710H   00975AH   00004BH   BYTE   UNIT     CODE           ?PR?TACKLEAUDIOCONTROL?AUDIO
00975BH   0097A1H   000047H   BYTE   UNIT     CODE           ?PR?TACKLESETFEATURE?REQUEST
0097A2H   0097E4H   000043H   BYTE   UNIT     CODE           ?PR?ACQUIRECONFIGDSCRDATA?REQUEST
0097E5H   009825H   000041H   BYTE   UNIT     CODE           ?PR?ORIGININITIALIZE?MAIN
009826H   009866H   000041H   BYTE   UNIT     CODE           ?PR?UARTBAUDRATEINIT?PERI_LIB
009867H   0098A6H   000040H   BYTE   UNIT     CODE           ?PR?_SETRECORDSAMPLERATE?AUDIO_LIB
0098A7H   0098E1H   00003BH   BYTE   UNIT     CODE           ?PR?VARIABLESINIT?MAIN
0098E2H   00991CH   00003BH   BYTE   UNIT     CODE           ?PR?HANDLEUSBSUSPEND?MAIN
00991DH   009953H   000037H   BYTE   UNIT     CODE           ?PR?TACKLECLEARFEATURE?REQUEST
009954H   009989H   000036H   BYTE   UNIT     CODE           ?PR?_GPIO_INIT?IO_LIB
00998AH   0099BEH   000035H   BYTE   UNIT     CODE           ?PR?PLAYBACKMUTECONTROL?AUDIO_LIB
0099BFH   0099F3H   000035H   BYTE   UNIT     CODE           ?PR?RECORDMUTECONTROL?AUDIO_LIB
0099F4H   009A28H   000035H   BYTE   UNIT     CODE           ?PR?_SELECTRECPATH?AUDIO_LIB
009A29H   009A5BH   000033H   BYTE   UNIT     CODE           ?PR?ACQUIREDEVICEDSCRDATA?REQUEST
009A5CH   009A8BH   000030H   BYTE   UNIT     CODE           ?PR?TACKLESETCONFIGURATION?REQUEST
009A8CH   009ABBH   000030H   BYTE   UNIT     CODE           ?PR?TACKLESETINTERFACE?REQUEST
009ABCH   009AEBH   000030H   BYTE   UNIT     CODE           ?PR?_C2MCOPY?MAIN_LIB
009AECH   009B19H   00002EH   BYTE   UNIT     CODE           ?PR?MAIN
009B1AH   009B43H   00002AH   BYTE   UNIT     CODE           ?PR?AUDIO_LIB
009B44H   009B6BH   000028H   BYTE   UNIT     CODE           ?PR?SUBMITUSBINTTRANSFER?USB
009B6CH   009B93H   000028H   BYTE   UNIT     CODE           ?PR?HANDLESPISLAVE?PERI_LIB
009B94H   009BBBH   000028H   BYTE   UNIT     CODE           ?PR?_SETPLAYSAMPLERATE?AUDIO_LIB
009BBCH   009BE3H   000028H   BYTE   UNIT     CODE           ?PR?SETPLAYBITRESOLUTION?AUDIO_LIB
009BE4H   009C0BH   000028H   BYTE   UNIT     CODE           ?PR?SETRECORDBITRESOLUTION?AUDIO_LIB
009C0CH   009C32H   000027H   BYTE   UNIT     CODE           ?PR?HANDLEINT1ISR?INT
009C33H   009C57H   000025H   BYTE   UNIT     CODE           ?PR?_GPIOPUPDSETTING?IO_LIB
009C58H   009C7AH   000023H   BYTE   UNIT     CODE           ?PR?ORIGINSETFREQUENCY2?AUDIO
009C7BH   009C9DH   000023H   BYTE   UNIT     CODE           ?PR?PLAYBACKMINVOLHANDLE?AUDIO_LIB
009C9EH   009CC0H   000023H   BYTE   UNIT     CODE           ?PR?_M2MCOPY?MAIN_LIB
009CC1H   009CE2H   000022H   BYTE   UNIT     CODE           ?PR?POWERONRESET?MAIN
009CE3H   009D03H   000021H   BYTE   UNIT     CODE           ?PR?ORIGINSETFREQUENCY1?AUDIO
009D04H   009D22H   00001FH   BYTE   UNIT     CODE           ?PR?ANTIPOPPROCEDURE?MAIN_LIB
009D23H   009D3FH   00001DH   BYTE   UNIT     CODE           ?PR?USBEPRESET?MAIN
009D40H   009D5CH   00001DH   BYTE   UNIT     CODE           ?PR?TACKLEGETINTERFACE?REQUEST
009D5DH   009D79H   00001DH   BYTE   UNIT     CODE           ?PR?POR_INIT?MAIN_LIB
009D7AH   009D94H   00001BH   BYTE   UNIT     CODE           ?PR?_INTSPIREAD?INT
009D95H   009DAFH   00001BH   BYTE   UNIT     CODE           ?PR?PERICLKRESET?MAIN
009DB0H   009DCAH   00001BH   BYTE   UNIT     CODE           ?PR?_INTERNSPIREADBYTE?PERI_LIB
009DCBH   009DE4H   00001AH   BYTE   UNIT     CODE           ?PR?MICINAAMUTECONTROL?AUDIO_LIB
009DE5H   009DFEH   00001AH   BYTE   UNIT     CODE           ?PR?LINEINAAMUTECONTROL?AUDIO_LIB
009DFFH   009E18H   00001AH   BYTE   UNIT     CODE           ?PR?_MEMZERO?MAIN_LIB
009E19H   009E31H   000019H   BYTE   UNIT     CODE           ?PR?INT
009E32H   009E49H   000018H   BYTE   UNIT     CODE           ?PR?PERIINTINIT?IO
009E4AH   009E61H   000018H   BYTE   UNIT     CODE           ?PR?TACKLESETADDRESS?REQUEST
009E62H   009E78H   000017H   BYTE   UNIT     CODE           ?PR?_INTSPIWRITE?INT
LX51 LINKER/LOCATER V4.47a                                                            03/27/2015  10:38:55  PAGE 4


009E79H   009E8FH   000017H   BYTE   UNIT     CODE           ?PR?_INTERNSPIWRITEBYTE?PERI_LIB
009E90H   009EA6H   000017H   BYTE   UNIT     CODE           ?PR?MAIN_LIB
009EA7H   009EBCH   000016H   BYTE   UNIT     CODE           ?PR?_HANDLEPERIHIDREPORT?MAIN
009EBDH   009ED2H   000016H   BYTE   UNIT     CODE           ?PR?EPINTCLEARHALT?REQUEST
009ED3H   009EE7H   000015H   BYTE   UNIT     CODE           ?PR?STARTSPDIFOUT?AUDIO
009EE8H   009EFCH   000015H   BYTE   UNIT     CODE           ?PR?ANACODECPOWERRESET?MAIN
009EFDH   009F10H   000014H   BYTE   UNIT     CODE           ?PR?HANDLEUSBINTTRANSFER?USB
009F11H   009F24H   000014H   BYTE   UNIT     CODE           ?PR?ACQUIREHIDDSCRDATA?REQUEST
009F25H   009F36H   000012H   BYTE   UNIT     CODE           ?PR?TACKLEHIDSETREPORT?REQUEST
009F37H   009F47H   000011H   BYTE   UNIT     CODE           ?PR?TACKLEGETCONFIGURATION?REQUEST
009F48H   009F57H   000010H   BYTE   UNIT     CODE           ?PR?TIMER1CONFIG?MAIN
009F58H   009F66H   00000FH   BYTE   UNIT     CODE           ?PR?LED1_SWITCH?PERI_LIB
009F67H   009F75H   00000FH   BYTE   UNIT     CODE           ?PR?LED2_SWITCH?PERI_LIB
009F76H   009F84H   00000FH   BYTE   UNIT     CODE           ?PR?LED3_SWITCH?PERI_LIB
009F85H   009F93H   00000FH   BYTE   UNIT     CODE           ?PR?PDSW_CONTROL?PERI_LIB
009F94H   009FA2H   00000FH   BYTE   UNIT     CODE           ?PR?SPDIFOUTMUTESWITCH?AUDIO_LIB
009FA3H   009FB1H   00000FH   BYTE   UNIT     CODE           ?PR?SPDIFINMUTESWITCH?AUDIO_LIB
009FB2H   009FC0H   00000FH   BYTE   UNIT     CODE           ?PR?RECORDFROMSPDIF?AUDIO_LIB
009FC1H   009FCFH   00000FH   BYTE   UNIT     CODE           ?PR?RECORDMONOENABLE?AUDIO_LIB
009FD0H   009FDCH   00000DH   BYTE   UNIT     CODE           ?PR?HANDLETIMER1ISR?INT
009FDDH   009FE9H   00000DH   BYTE   UNIT     CODE           ?PR?ACQUIRESTRINGDSCRDATA?REQUEST
009FEAH   009FF6H   00000DH   BYTE   UNIT     CODE           ?PR?ACQUIREHIDREPORTDSCRDATA?REQUEST
009FF7H   009FFDH   000007H   BYTE   UNIT     CODE           ?PR?REFRESHWDT?PERI_LIB
009FFEH   00A003H   000006H   BYTE   UNIT     CODE           ?C_C51STARTUP
00A004H   00A008H   000005H   BYTE   UNIT     CODE           ?PR?ORIGINCONFIG?MAIN
00A009H   00A00DH   000005H   BYTE   UNIT     CODE           ?PR?ORIGINIR?MAIN
00A00EH   00A00EH   000001H   BYTE   UNIT     CODE           ?PR?ORIGINFEATUREAGC?AUDIO
00A00FH   00A00FH   000001H   BYTE   UNIT     CODE           ?PR?HANDLEINT0ISR?INT
00A010H   00A010H   000001H   BYTE   UNIT     CODE           ?PR?HANDLEUARTISR?INT
00A011H   00A011H   000001H   BYTE   UNIT     CODE           ?PR?ORIGINRESET?MAIN
00A012H   00A012H   000001H   BYTE   UNIT     CODE           ?PR?ORIGINEVENT?MAIN
00A013H   00A05AH   000048H   BYTE   UNIT     CONST          ?CO?AUDIO
00A05BH   00A096H   00003CH   BYTE   UNIT     CONST          ?CO?PERI_LIB
00A097H   00A0C3H   00002DH   BYTE   UNIT     CONST          ?CO?AUDIO_LIB
00A0C4H   00A0D5H   000012H   BYTE   UNIT     CONST          ?CO?MAIN_LIB
00A0D6H   00A28FH   0001BAH   ---    ---      **GAP**
00A290H   00A475H   0001E6H   ---    OFFS..   CODE           ?CO?DSCR?0

* * * * * * * * * * *  X D A T A   M E M O R Y  * * * * * * * * * * * * *
000000H   000000H   000001H   BYTE   OFFS..   XDATA          ?XD?MAIN_LIB?19
000001H   000001H   000001H   BYTE   OFFS..   XDATA          ?XD?MAIN_LIB?74
000002H   000002H   000001H   BYTE   OFFS..   XDATA          ?XD?MAIN_LIB?69
000003H   000003H   000001H   BYTE   OFFS..   XDATA          ?XD?MAIN_LIB?60
000004H   000004H   000001H   BYTE   OFFS..   XDATA          ?XD?MAIN_LIB?45
000005H   000005H   000001H   BYTE   OFFS..   XDATA          ?XD?MAIN_LIB?41
000006H   000006H   000001H   BYTE   OFFS..   XDATA          ?XD?MAIN_LIB?53
000007H   000007H   000001H   BYTE   OFFS..   XDATA          ?XD?MAIN_LIB?63
000008H   000008H   000001H   BYTE   OFFS..   XDATA          ?XD?MAIN_LIB?39
000009H   000009H   000001H   BYTE   OFFS..   XDATA          ?XD?MAIN_LIB?33
00000AH   00000AH   000001H   BYTE   OFFS..   XDATA          ?XD?MAIN_LIB?16
00000BH   00000DH   000003H   ---    ---      **GAP**
00000EH   00000EH   000001H   BYTE   OFFS..   XDATA          ?XD?MAIN_LIB?30
00000FH   00000FH   000001H   BYTE   OFFS..   XDATA          ?XD?MAIN_LIB?107
000010H   000010H   000001H   BYTE   OFFS..   XDATA          ?XD?MAIN_LIB?28
000011H   000011H   000001H   BYTE   OFFS..   XDATA          ?XD?MAIN_LIB?108
000012H   000012H   000001H   BYTE   OFFS..   XDATA          ?XD?MAIN_LIB?71
000013H   000013H   000001H   BYTE   OFFS..   XDATA          ?XD?MAIN_LIB?36
000014H   000014H   000001H   BYTE   OFFS..   XDATA          ?XD?MAIN_LIB?57
000015H   000015H   000001H   BYTE   OFFS..   XDATA          ?XD?MAIN_LIB?52
000016H   000016H   000001H   BYTE   OFFS..   XDATA          ?XD?MAIN_LIB?62
000017H   000017H   000001H   BYTE   OFFS..   XDATA          ?XD?MAIN_LIB?58
000018H   000018H   000001H   BYTE   OFFS..   XDATA          ?XD?MAIN_LIB?55
000019H   000019H   000001H   BYTE   OFFS..   XDATA          ?XD?MAIN_LIB?50
00001AH   000021H   000008H   ---    ---      **GAP**
000022H   000022H   000001H   BYTE   OFFS..   XDATA          ?XD?MAIN_LIB?100
LX51 LINKER/LOCATER V4.47a                                                            03/27/2015  10:38:55  PAGE 5


000023H   00002FH   00000DH   ---    ---      **GAP**
000030H   000033H   000004H   BYTE   OFFS..   XDATA          ?XD?MAIN_LIB?10
000034H   000035H   000002H   BYTE   OFFS..   XDATA          ?XD?MAIN_LIB?82
000036H   000036H   000001H   BYTE   OFFS..   XDATA          ?XD?MAIN_LIB?73
000037H   000037H   000001H   BYTE   OFFS..   XDATA          ?XD?MAIN_LIB?32
000038H   000038H   000001H   ---    ---      **GAP**
000039H   00003BH   000003H   BYTE   OFFS..   XDATA          ?XD?MAIN_LIB?56
00003CH   00003DH   000002H   ---    ---      **GAP**
00003EH   00003EH   000001H   BYTE   OFFS..   XDATA          ?XD?MAIN_LIB?7
00003FH   00003FH   000001H   ---    ---      **GAP**
000040H   000040H   000001H   BYTE   OFFS..   XDATA          ?XD?MAIN_LIB?94
000041H   000041H   000001H   BYTE   OFFS..   XDATA          ?XD?MAIN_LIB?96
000042H   000042H   000001H   BYTE   OFFS..   XDATA          ?XD?MAIN_LIB?98
000043H   000043H   000001H   BYTE   OFFS..   XDATA          ?XD?MAIN_LIB?99
000044H   000044H   000001H   BYTE   OFFS..   XDATA          ?XD?MAIN_LIB?101
000045H   000045H   000001H   BYTE   OFFS..   XDATA          ?XD?MAIN_LIB?37
000046H   000046H   000001H   BYTE   OFFS..   XDATA          ?XD?MAIN_LIB?1
000047H   000047H   000001H   BYTE   OFFS..   XDATA          ?XD?MAIN_LIB?54
000048H   000048H   000001H   ---    ---      **GAP**
000049H   000049H   000001H   BYTE   OFFS..   XDATA          ?XD?MAIN_LIB?80
00004AH   00004AH   000001H   BYTE   OFFS..   XDATA          ?XD?MAIN_LIB?64
00004BH   000052H   000008H   ---    ---      **GAP**
000053H   000053H   000001H   BYTE   OFFS..   XDATA          ?XD?MAIN_LIB?40
000054H   000055H   000002H   ---    ---      **GAP**
000056H   000056H   000001H   BYTE   OFFS..   XDATA          ?XD?MAIN_LIB?9
000057H   000057H   000001H   BYTE   OFFS..   XDATA          ?XD?MAIN_LIB?70
000058H   000058H   000001H   BYTE   OFFS..   XDATA          ?XD?MAIN_LIB?68
000059H   000059H   000001H   BYTE   OFFS..   XDATA          ?XD?MAIN_LIB?3
00005AH   00005AH   000001H   BYTE   OFFS..   XDATA          ?XD?MAIN_LIB?67
00005BH   00005CH   000002H   BYTE   OFFS..   XDATA          ?XD?MAIN_LIB?44
00005DH   00005EH   000002H   BYTE   OFFS..   XDATA          ?XD?MAIN_LIB?43
00005FH   00005FH   000001H   BYTE   OFFS..   XDATA          ?XD?MAIN_LIB?103
000060H   000061H   000002H   BYTE   OFFS..   XDATA          ?XD?MAIN_LIB?29
000062H   000062H   000001H   BYTE   OFFS..   XDATA          ?XD?MAIN_LIB?2
000063H   000065H   000003H   BYTE   OFFS..   XDATA          ?XD?MAIN_LIB?23
000066H   000069H   000004H   BYTE   OFFS..   XDATA          ?XD?MAIN_LIB?51
00006AH   00006AH   000001H   BYTE   OFFS..   XDATA          ?XD?MAIN_LIB?65
00006BH   00006BH   000001H   BYTE   OFFS..   XDATA          ?XD?MAIN_LIB?66
00006CH   00006CH   000001H   BYTE   OFFS..   XDATA          ?XD?MAIN_LIB?59
00006DH   00006FH   000003H   ---    ---      **GAP**
000070H   000070H   000001H   BYTE   OFFS..   XDATA          ?XD?MAIN_LIB?87
000071H   000071H   000001H   BYTE   OFFS..   XDATA          ?XD?MAIN_LIB?88
000072H   000072H   000001H   BYTE   OFFS..   XDATA          ?XD?MAIN_LIB?91
000073H   000073H   000001H   BYTE   OFFS..   XDATA          ?XD?MAIN_LIB?93
000074H   000074H   000001H   BYTE   OFFS..   XDATA          ?XD?MAIN_LIB?95
000075H   000075H   000001H   BYTE   OFFS..   XDATA          ?XD?MAIN_LIB?34
000076H   000076H   000001H   BYTE   OFFS..   XDATA          ?XD?MAIN_LIB?0
000077H   000077H   000001H   BYTE   OFFS..   XDATA          ?XD?MAIN_LIB?49
000078H   00007FH   000008H   ---    ---      **GAP**
000080H   000080H   000001H   BYTE   OFFS..   XDATA          ?XD?MAIN_LIB?112
000081H   000081H   000001H   BYTE   OFFS..   XDATA          ?XD?MAIN_LIB?78
000082H   000082H   000001H   BYTE   OFFS..   XDATA          ?XD?MAIN_LIB?75
000083H   000092H   000010H   BYTE   OFFS..   XDATA          ?XD?MAIN_LIB?102
000093H   000093H   000001H   BYTE   OFFS..   XDATA          ?XD?MAIN_LIB?15
000094H   000094H   000001H   BYTE   OFFS..   XDATA          ?XD?MAIN_LIB?18
000095H   000095H   000001H   BYTE   OFFS..   XDATA          ?XD?MAIN_LIB?21
000096H   000097H   000002H   ---    ---      **GAP**
000098H   000099H   000002H   BYTE   OFFS..   XDATA          ?XD?MAIN_LIB?86
00009AH   00009AH   000001H   BYTE   OFFS..   XDATA          ?XD?MAIN_LIB?110
00009BH   00009FH   000005H   ---    ---      **GAP**
0000A0H   0000A2H   000003H   BYTE   OFFS..   XDATA          ?XD?MAIN_LIB?48
0000A3H   0000A5H   000003H   BYTE   OFFS..   XDATA          ?XD?MAIN_LIB?47
0000A6H   0000A8H   000003H   BYTE   OFFS..   XDATA          ?XD?MAIN_LIB?35
0000A9H   0000ABH   000003H   BYTE   OFFS..   XDATA          ?XD?MAIN_LIB?72
0000ACH   0000AEH   000003H   BYTE   OFFS..   XDATA          ?XD?MAIN_LIB?42
LX51 LINKER/LOCATER V4.47a                                                            03/27/2015  10:38:55  PAGE 6


0000AFH   0000B2H   000004H   BYTE   OFFS..   XDATA          ?XD?MAIN_LIB?92
0000B3H   0000B3H   000001H   BYTE   OFFS..   XDATA          ?XD?MAIN_LIB?84
0000B4H   0000B4H   000001H   BYTE   OFFS..   XDATA          ?XD?MAIN_LIB?14
0000B5H   0000B5H   000001H   BYTE   OFFS..   XDATA          ?XD?MAIN_LIB?76
0000B6H   0000B7H   000002H   BYTE   OFFS..   XDATA          ?XD?MAIN_LIB?46
0000B8H   0000B8H   000001H   BYTE   OFFS..   XDATA          ?XD?MAIN_LIB?83
0000B9H   0000B9H   000001H   BYTE   OFFS..   XDATA          ?XD?MAIN_LIB?79
0000BAH   0000BAH   000001H   BYTE   OFFS..   XDATA          ?XD?MAIN_LIB?8
0000BBH   0000BBH   000001H   BYTE   OFFS..   XDATA          ?XD?MAIN_LIB?111
0000BCH   0000BEH   000003H   ---    ---      **GAP**
0000BFH   0000BFH   000001H   BYTE   OFFS..   XDATA          ?XD?MAIN_LIB?5
0000C0H   0000C1H   000002H   BYTE   OFFS..   XDATA          ?XD?MAIN_LIB?90
0000C2H   0000C3H   000002H   BYTE   OFFS..   XDATA          ?XD?MAIN_LIB?81
0000C4H   0000C5H   000002H   BYTE   OFFS..   XDATA          ?XD?MAIN_LIB?4
0000C6H   0000C7H   000002H   BYTE   OFFS..   XDATA          ?XD?MAIN_LIB?6
0000C8H   0000C9H   000002H   BYTE   OFFS..   XDATA          ?XD?MAIN_LIB?77
0000CAH   0000CAH   000001H   BYTE   OFFS..   XDATA          ?XD?MAIN_LIB?25
0000CBH   0000D0H   000006H   ---    ---      **GAP**
0000D1H   0000D1H   000001H   BYTE   OFFS..   XDATA          ?XD?MAIN_LIB?97
0000D2H   0000D2H   000001H   BYTE   OFFS..   XDATA          ?XD?MAIN_LIB?113
0000D3H   0000D3H   000001H   BYTE   OFFS..   XDATA          ?XD?MAIN_LIB?17
0000D4H   0000D4H   000001H   BYTE   OFFS..   XDATA          ?XD?MAIN_LIB?104
0000D5H   0000D5H   000001H   BYTE   OFFS..   XDATA          ?XD?MAIN_LIB?20
0000D6H   0000D6H   000001H   BYTE   OFFS..   XDATA          ?XD?MAIN_LIB?105
0000D7H   0000D7H   000001H   BYTE   OFFS..   XDATA          ?XD?MAIN_LIB?22
0000D8H   0000D8H   000001H   BYTE   OFFS..   XDATA          ?XD?MAIN_LIB?106
0000D9H   0000D9H   000001H   BYTE   OFFS..   XDATA          ?XD?MAIN_LIB?61
0000DAH   0000E1H   000008H   BYTE   OFFS..   XDATA          ?XD?MAIN_LIB?27
0000E2H   0000E3H   000002H   BYTE   OFFS..   XDATA          ?XD?MAIN_LIB?24
0000E4H   0000E7H   000004H   BYTE   OFFS..   XDATA          ?XD?MAIN_LIB?89
0000E8H   0000E8H   000001H   BYTE   OFFS..   XDATA          ?XD?MAIN_LIB?12
0000E9H   0000EFH   000007H   ---    ---      **GAP**
0000F0H   0000F0H   000001H   BYTE   OFFS..   XDATA          ?XD?MAIN_LIB?109
0000F1H   0000F3H   000003H   ---    ---      **GAP**
0000F4H   0000F6H   000003H   BYTE   OFFS..   XDATA          ?XD?MAIN_LIB?85
0000F7H   0000F7H   000001H   ---    ---      **GAP**
0000F8H   0000F8H   000001H   BYTE   OFFS..   XDATA          ?XD?MAIN_LIB?38
0000F9H   0000F9H   000001H   BYTE   OFFS..   XDATA          ?XD?MAIN_LIB?13
0000FAH   0000FAH   000001H   BYTE   OFFS..   XDATA          ?XD?MAIN_LIB?11
0000FBH   0000FDH   000003H   ---    ---      **GAP**
0000FEH   0000FEH   000001H   BYTE   OFFS..   XDATA          ?XD?MAIN_LIB?26
0000FFH   0000FFH   000001H   BYTE   OFFS..   XDATA          ?XD?MAIN_LIB?31
000100H   000A5FH   000960H   ---    ---      **GAP**
000A60H   000A74H   000015H   BYTE   UNIT     XDATA_EXTMEM   ?XD?PERI_LIB



OVERLAY MAP OF MODULE:   .\output\cm65xxfw (USB)


FUNCTION/MODULE                        BIT_GROUP   DATA_GROUP 
--> CALLED FUNCTION/MODULE            START  STOP  START  STOP
==============================================================
?C_C51STARTUP                         ----- -----  ----- -----
  +--> MAIN/MAIN

MAIN/MAIN                             ----- -----  ----- -----
  +--> POWERONRESET/MAIN
  +--> HUBINSUSPEND/MAIN_LIB
  +--> ANTIPOPPROCEDURE/MAIN_LIB
  +--> HANDLEUSBRESET/MAIN
  +--> HANDLEUSBSUSPEND/MAIN
  +--> HANDLEUSBRESUME/MAIN
  +--> HANDLEUSBCTRLTRANSFER/USB
  +--> HANDLEUSBINTTRANSFER/USB
LX51 LINKER/LOCATER V4.47a                                                            03/27/2015  10:38:55  PAGE 7


  +--> MAIN
  +--> REFRESHWDT/PERI_LIB

POWERONRESET/MAIN                     ----- -----  ----- -----
  +--> REFRESHWDT/PERI_LIB
  +--> POR_INIT/MAIN_LIB
  +--> VARIABLESINIT/MAIN
  +--> MAIN

REFRESHWDT/PERI_LIB                   ----- -----  ----- -----

POR_INIT/MAIN_LIB                     ----- -----  ----- -----

VARIABLESINIT/MAIN                    ----- -----  ----- -----
  +--> ?CO?AUDIO

?CO?AUDIO                             ----- -----  ----- -----
  +--> ORIGINFEATUREVOLUME/AUDIO
  +--> ORIGINFEATUREMUTE/AUDIO
  +--> ORIGINFEATUREAGC/AUDIO
  +--> ORIGINSETSELECTOR/AUDIO
  +--> ORIGINRECORDMUTE/AUDIO
  +--> ORIGINSETFREQUENCY1/AUDIO
  +--> ORIGINSETFREQUENCY2/AUDIO
  +--> ORIGININITIALIZE/MAIN
  +--> ORIGINRESET/MAIN
  +--> ORIGINCONFIG/MAIN
  +--> ORIGINEVENT/MAIN
  +--> ORIGINGPI/MAIN
  +--> ORIGINIR/MAIN

ORIGINFEATUREVOLUME/AUDIO             ----- -----  ----- -----
  +--> AUDIO
  +--> PLAYBACKMINVOLHANDLE/AUDIO_LIB
  +--> PLAYBACKVOLCONTROL/AUDIO_LIB
  +--> RECORDVOLCONTROL/AUDIO_LIB
  +--> AAPATHVOLCONTROL/AUDIO_LIB

AUDIO                                 ----- -----  ----- -----

PLAYBACKMINVOLHANDLE/AUDIO_LIB        21H.2 21H.2  0054H 0054H
  +--> _INTERNSPIREADBYTE/PERI_LIB
  +--> _INTERNSPIWRITEBYTE/PERI_LIB
  +--> AUDIO_LIB

_INTERNSPIREADBYTE/PERI_LIB           ----- -----  ----- -----

_INTERNSPIWRITEBYTE/PERI_LIB          ----- -----  ----- -----

AUDIO_LIB                             ----- -----  ----- -----

PLAYBACKVOLCONTROL/AUDIO_LIB          21H.2 21H.2  0054H 0056H
  +--> AUDIO_LIB
  +--> _INTERNSPIREADBYTE/PERI_LIB
  +--> _INTERNSPIWRITEBYTE/PERI_LIB

RECORDVOLCONTROL/AUDIO_LIB            21H.2 21H.3  0054H 0056H
  +--> AUDIO_LIB
  +--> _INTERNSPIREADBYTE/PERI_LIB
  +--> _INTERNSPIWRITEBYTE/PERI_LIB

AAPATHVOLCONTROL/AUDIO_LIB            21H.2 21H.2  0054H 0056H
  +--> _INTERNSPIWRITEBYTE/PERI_LIB
  +--> _INTERNSPIREADBYTE/PERI_LIB

LX51 LINKER/LOCATER V4.47a                                                            03/27/2015  10:38:55  PAGE 8


ORIGINFEATUREMUTE/AUDIO               ----- -----  ----- -----
  +--> PLAYBACKMUTECONTROL/AUDIO_LIB
  +--> LED2_SWITCH/PERI_LIB
  +--> SPDIFOUTMUTESWITCH/AUDIO_LIB
  +--> RECORDMUTECONTROL/AUDIO_LIB
  +--> LED3_SWITCH/PERI_LIB
  +--> MICINAAMUTECONTROL/AUDIO_LIB
  +--> LINEINAAMUTECONTROL/AUDIO_LIB
  +--> SPDIFINMUTESWITCH/AUDIO_LIB

PLAYBACKMUTECONTROL/AUDIO_LIB         21H.2 21H.3  ----- -----
  +--> _INTERNSPIREADBYTE/PERI_LIB
  +--> _INTERNSPIWRITEBYTE/PERI_LIB

LED2_SWITCH/PERI_LIB                  21H.2 21H.2  ----- -----

SPDIFOUTMUTESWITCH/AUDIO_LIB          21H.2 21H.2  ----- -----

RECORDMUTECONTROL/AUDIO_LIB           21H.2 21H.3  ----- -----
  +--> _INTERNSPIREADBYTE/PERI_LIB
  +--> _INTERNSPIWRITEBYTE/PERI_LIB

LED3_SWITCH/PERI_LIB                  21H.2 21H.2  ----- -----

MICINAAMUTECONTROL/AUDIO_LIB          21H.2 21H.2  ----- -----
  +--> _INTERNSPIREADBYTE/PERI_LIB
  +--> _INTERNSPIWRITEBYTE/PERI_LIB

LINEINAAMUTECONTROL/AUDIO_LIB         21H.2 21H.2  ----- -----
  +--> _INTERNSPIREADBYTE/PERI_LIB
  +--> _INTERNSPIWRITEBYTE/PERI_LIB

SPDIFINMUTESWITCH/AUDIO_LIB           21H.2 21H.2  ----- -----

ORIGINFEATUREAGC/AUDIO                ----- -----  ----- -----

ORIGINSETSELECTOR/AUDIO               ----- -----  ----- -----
  +--> RECORDMUTECONTROL/AUDIO_LIB
  +--> _SELECTRECPATH/AUDIO_LIB
  +--> RECORDVOLCONTROL/AUDIO_LIB
  +--> RECORDFROMSPDIF/AUDIO_LIB
  +--> SPDIFINMUTESWITCH/AUDIO_LIB

_SELECTRECPATH/AUDIO_LIB              ----- -----  ----- -----
  +--> _INTERNSPIREADBYTE/PERI_LIB
  +--> _INTERNSPIWRITEBYTE/PERI_LIB

RECORDFROMSPDIF/AUDIO_LIB             21H.2 21H.2  ----- -----

ORIGINRECORDMUTE/AUDIO                ----- -----  ----- -----
  +--> SPDIFINMUTESWITCH/AUDIO_LIB
  +--> RECORDMUTECONTROL/AUDIO_LIB
  +--> LED3_SWITCH/PERI_LIB

ORIGINSETFREQUENCY1/AUDIO             ----- -----  ----- -----
  +--> FREQ2CTRLBYTE/AUDIO
  +--> _SETPLAYSAMPLERATE/AUDIO_LIB
  +--> AUDIO
  +--> SETPLAYBITRESOLUTION/AUDIO_LIB
  +--> STARTSPDIFOUT/AUDIO

FREQ2CTRLBYTE/AUDIO                   ----- -----  ----- -----
  +--> AUDIO
  +--> ?CO?AUDIO_LIB

LX51 LINKER/LOCATER V4.47a                                                            03/27/2015  10:38:55  PAGE 9


?CO?AUDIO_LIB                         ----- -----  ----- -----

_SETPLAYSAMPLERATE/AUDIO_LIB          ----- -----  ----- -----
  +--> _INTERNSPIREADBYTE/PERI_LIB
  +--> _INTERNSPIWRITEBYTE/PERI_LIB

SETPLAYBITRESOLUTION/AUDIO_LIB        21H.2 21H.2  ----- -----
  +--> _INTERNSPIREADBYTE/PERI_LIB
  +--> _INTERNSPIWRITEBYTE/PERI_LIB

STARTSPDIFOUT/AUDIO                   ----- -----  ----- -----
  +--> FREQ2CTRLBYTE/AUDIO
  +--> SPDIFOUTMUTESWITCH/AUDIO_LIB

ORIGINSETFREQUENCY2/AUDIO             ----- -----  ----- -----
  +--> FREQ2CTRLBYTE/AUDIO
  +--> _SETRECORDSAMPLERATE/AUDIO_LIB
  +--> AUDIO
  +--> SETRECORDBITRESOLUTION/AUDIO_LIB
  +--> RECORDMONOENABLE/AUDIO_LIB

_SETRECORDSAMPLERATE/AUDIO_LIB        ----- -----  0054H 0054H
  +--> _INTERNSPIREADBYTE/PERI_LIB
  +--> _INTERNSPIWRITEBYTE/PERI_LIB

SETRECORDBITRESOLUTION/AUDIO_LIB      21H.2 21H.2  ----- -----
  +--> _INTERNSPIREADBYTE/PERI_LIB
  +--> _INTERNSPIWRITEBYTE/PERI_LIB

RECORDMONOENABLE/AUDIO_LIB            21H.2 21H.2  ----- -----

ORIGININITIALIZE/MAIN                 ----- -----  ----- -----
  +--> _GPIO_INIT/IO_LIB
  +--> _LED_CONFIG/PERI_LIB
  +--> LED1_SWITCH/PERI_LIB
  +--> TIMER1CONFIG/MAIN
  +--> PERIINTINIT/IO
  +--> PERICLKRESET/MAIN

_GPIO_INIT/IO_LIB                     21H.2 21H.2  ----- -----

_LED_CONFIG/PERI_LIB                  ----- -----  ----- -----
  +--> PERI_LIB

PERI_LIB                              ----- -----  ----- -----
  +--> ?CO?PERI_LIB
  +--> REFRESHWDT/PERI_LIB

?CO?PERI_LIB                          ----- -----  ----- -----

LED1_SWITCH/PERI_LIB                  21H.2 21H.2  ----- -----

TIMER1CONFIG/MAIN                     ----- -----  ----- -----

PERIINTINIT/IO                        ----- -----  ----- -----

PERICLKRESET/MAIN                     ----- -----  ----- -----

ORIGINRESET/MAIN                      ----- -----  ----- -----

ORIGINCONFIG/MAIN                     ----- -----  ----- -----
  +--> PDSW_CONTROL/PERI_LIB

PDSW_CONTROL/PERI_LIB                 21H.2 21H.2  ----- -----

LX51 LINKER/LOCATER V4.47a                                                            03/27/2015  10:38:55  PAGE 10


ORIGINEVENT/MAIN                      ----- -----  ----- -----

ORIGINGPI/MAIN                        ----- -----  ----- -----
  +--> MAIN
  +--> _HANDLEPERIHIDREPORT/MAIN

MAIN                                  ----- -----  ----- -----

_HANDLEPERIHIDREPORT/MAIN             ----- -----  0054H 0054H
  +--> INPUTREPORTDATAREADY/MAIN
  +--> SUBMITUSBINTTRANSFER/USB

INPUTREPORTDATAREADY/MAIN             ----- -----  ----- -----

SUBMITUSBINTTRANSFER/USB              ----- -----  ----- -----
  +--> USB

USB                                   ----- -----  ----- -----

ORIGINIR/MAIN                         ----- -----  ----- -----
  +--> _HANDLEPERIHIDREPORT/MAIN

HUBINSUSPEND/MAIN_LIB                 ----- -----  0053H 0053H
  +--> REFRESHWDT/PERI_LIB
  +--> MAIN_LIB
  +--> _INTERNSPIREADBYTE/PERI_LIB
  +--> _INTERNSPIWRITEBYTE/PERI_LIB

MAIN_LIB                              ----- -----  ----- -----

ANTIPOPPROCEDURE/MAIN_LIB             ----- -----  ----- -----
  +--> _INTERNSPIREADBYTE/PERI_LIB
  +--> _INTERNSPIWRITEBYTE/PERI_LIB
  +--> DELAYANALOGMUTE/MAIN_LIB

DELAYANALOGMUTE/MAIN_LIB              ----- -----  ----- -----
  +--> MAIN_LIB
  +--> REFRESHWDT/PERI_LIB
  +--> _INTERNSPIREADBYTE/PERI_LIB
  +--> _INTERNSPIWRITEBYTE/PERI_LIB

HANDLEUSBRESET/MAIN                   ----- -----  ----- -----
  +--> ANACODECPOWERRESET/MAIN
  +--> USBEPRESET/MAIN
  +--> CODECRESET/MAIN
  +--> _MEMZERO/MAIN_LIB
  +--> MAIN
  +--> VOLUMERESET/MAIN

ANACODECPOWERRESET/MAIN               ----- -----  ----- -----
  +--> _INTERNSPIREADBYTE/PERI_LIB
  +--> _INTERNSPIWRITEBYTE/PERI_LIB

USBEPRESET/MAIN                       ----- -----  ----- -----
  +--> MAIN

CODECRESET/MAIN                       ----- -----  ----- -----
  +--> _INTERNSPIREADBYTE/PERI_LIB
  +--> _INTERNSPIWRITEBYTE/PERI_LIB
  +--> ADCCODECRESET/MAIN_LIB
  +--> DACCODECRESET/MAIN_LIB

ADCCODECRESET/MAIN_LIB                20H.6 21H.1  ----- -----

DACCODECRESET/MAIN_LIB                20H.6 21H.1  ----- -----
LX51 LINKER/LOCATER V4.47a                                                            03/27/2015  10:38:55  PAGE 11



_MEMZERO/MAIN_LIB                     ----- -----  0053H 0055H
  +--> MAIN_LIB

VOLUMERESET/MAIN                      ----- -----  ----- -----
  +--> _MEMZERO/MAIN_LIB
  +--> ?CO?AUDIO
  +--> MAIN

HANDLEUSBSUSPEND/MAIN                 ----- -----  ----- -----
  +--> _INTERNSPIREADBYTE/PERI_LIB
  +--> _INTERNSPIWRITEBYTE/PERI_LIB
  +--> _GPIOPUPDSETTING/IO_LIB

_GPIOPUPDSETTING/IO_LIB               20H.6 20H.6  ----- -----

HANDLEUSBRESUME/MAIN                  ----- -----  ----- -----
  +--> ANACODECPOWERRESET/MAIN
  +--> _INTERNSPIREADBYTE/PERI_LIB
  +--> _INTERNSPIWRITEBYTE/PERI_LIB
  +--> _GPIOPUPDSETTING/IO_LIB
  +--> ADCCODECRESET/MAIN_LIB
  +--> DACCODECRESET/MAIN_LIB

HANDLEUSBCTRLTRANSFER/USB             ----- -----  0053H 0053H
  +--> USB
  +--> TACKLECONTROLREQUEST/REQUEST

TACKLECONTROLREQUEST/REQUEST          20H.6 20H.6  ----- -----
  +--> TACKLESETADDRESS/REQUEST
  +--> TACKLESETINTERFACE/REQUEST
  +--> TACKLESETCONFIGURATION/REQUEST
  +--> TACKLEGETINTERFACE/REQUEST
  +--> TACKLEGETCONFIGURATION/REQUEST
  +--> TACKLESETFEATURE/REQUEST
  +--> TACKLECLEARFEATURE/REQUEST
  +--> TACKLEGETSTATUS/REQUEST
  +--> TACKLEGETDESCRIPTOR/REQUEST
  +--> TACKLECLASSCOMMAND/REQUEST
  +--> TACKLEVENDORCOMMAND/REQUEST

TACKLESETADDRESS/REQUEST              ----- -----  ----- -----

TACKLESETINTERFACE/REQUEST            ----- -----  ----- -----
  +--> EPINTCLEARHALT/REQUEST
  +--> REQUEST
  +--> TACKLESETAUDIOINTERFACE/AUDIO

EPINTCLEARHALT/REQUEST                ----- -----  ----- -----
  +--> REQUEST

REQUEST                               ----- -----  ----- -----

TACKLESETAUDIOINTERFACE/AUDIO         ----- -----  ----- -----
  +--> AUDIO

TACKLESETCONFIGURATION/REQUEST        ----- -----  ----- -----
  +--> EPINTCLEARHALT/REQUEST

TACKLEGETINTERFACE/REQUEST            ----- -----  ----- -----

TACKLEGETCONFIGURATION/REQUEST        ----- -----  ----- -----

TACKLESETFEATURE/REQUEST              ----- -----  ----- -----
  +--> REQUEST
LX51 LINKER/LOCATER V4.47a                                                            03/27/2015  10:38:55  PAGE 12



TACKLECLEARFEATURE/REQUEST            ----- -----  ----- -----
  +--> REQUEST
  +--> EPINTCLEARHALT/REQUEST

TACKLEGETSTATUS/REQUEST               ----- -----  ----- -----
  +--> REQUEST

TACKLEGETDESCRIPTOR/REQUEST           20H.7 20H.7  ----- -----
  +--> ACQUIREDEVICEDSCRDATA/REQUEST
  +--> ACQUIRECONFIGDSCRDATA/REQUEST
  +--> ACQUIRESTRINGDSCRDATA/REQUEST
  +--> ACQUIREHIDDSCRDATA/REQUEST
  +--> ACQUIREHIDREPORTDSCRDATA/REQUEST

ACQUIREDEVICEDSCRDATA/REQUEST         ----- -----  ----- -----
  +--> _C2MCOPY/MAIN_LIB
  +--> REQUEST

_C2MCOPY/MAIN_LIB                     ----- -----  0054H 0059H
  +--> MAIN_LIB

ACQUIRECONFIGDSCRDATA/REQUEST         ----- -----  ----- -----
  +--> _C2MCOPY/MAIN_LIB
  +--> REQUEST

ACQUIRESTRINGDSCRDATA/REQUEST         ----- -----  ----- -----
  +--> REQUEST

ACQUIREHIDDSCRDATA/REQUEST            ----- -----  ----- -----
  +--> _C2MCOPY/MAIN_LIB
  +--> REQUEST

ACQUIREHIDREPORTDSCRDATA/REQUEST      ----- -----  ----- -----
  +--> REQUEST

TACKLECLASSCOMMAND/REQUEST            20H.7 20H.7  ----- -----
  +--> REQUEST
  +--> TACKLEAUDIOCONTROL/AUDIO
  +--> TACKLEHIDGETREPORT/REQUEST
  +--> TACKLEHIDSETREPORT/REQUEST
  +--> TACKLEHIDSETREPORTDATA/REQUEST
  +--> TACKLEAUDIOSTREAM/AUDIO

TACKLEAUDIOCONTROL/AUDIO              21H.0 21H.0  ----- -----
  +--> AUDIO
  +--> TACKLEFEATUREMUTE/AUDIO
  +--> TACKLEFEATUREVOLUME/AUDIO
  +--> TACKLESELECTOR/AUDIO

TACKLEFEATUREMUTE/AUDIO               21H.1 21H.1  ----- -----
  +--> AUDIO

TACKLEFEATUREVOLUME/AUDIO             21H.1 21H.1  ----- -----
  +--> AUDIO
  +--> ?CO?AUDIO
  +--> _C2MCOPY/MAIN_LIB

TACKLESELECTOR/AUDIO                  21H.1 21H.1  ----- -----
  +--> AUDIO

TACKLEHIDGETREPORT/REQUEST            ----- -----  ----- -----
  +--> REQUEST
  +--> _M2MCOPY/MAIN_LIB

LX51 LINKER/LOCATER V4.47a                                                            03/27/2015  10:38:55  PAGE 13


_M2MCOPY/MAIN_LIB                     ----- -----  0054H 005AH
  +--> MAIN_LIB

TACKLEHIDSETREPORT/REQUEST            ----- -----  ----- -----
  +--> REQUEST

TACKLEHIDSETREPORTDATA/REQUEST        ----- -----  ----- -----
  +--> REQUEST
  +--> _M2MCOPY/MAIN_LIB

TACKLEAUDIOSTREAM/AUDIO               21H.0 21H.0  ----- -----
  +--> AUDIO
  +--> ?CO?AUDIO_LIB

TACKLEVENDORCOMMAND/REQUEST           20H.7 20H.7  ----- -----
  +--> REQUEST

HANDLEUSBINTTRANSFER/USB              ----- -----  ----- -----



PUBLIC SYMBOLS OF MODULE:  .\output\cm65xxfw (USB)


      VALUE       CLASS    TYPE      PUBLIC SYMBOL NAME
      =================================================
      00000054H   DATA     BYTE      ?_C2MCopy?BYTE
      00000021H.2 BIT      BIT       ?_GPIO_Init?BIT
      00000020H.6 BIT      BIT       ?_GpioPuPdSetting?BIT
      00000054H   DATA     BYTE      ?_M2MCopy?BYTE
      00000021H.2 BIT      BIT       ?AApathVolControl?BIT
      00000054H   DATA     BYTE      ?AApathVolControl?BYTE
      00000020H.6 BIT      BIT       ?AdcCodecReset?BIT
      01008414H   CODE     ---       ?C?CCASE
      01008379H   CODE     ---       ?C?CLDOPTR
      01008360H   CODE     ---       ?C?CLDPTR
      00000000H   NUMBER   ---       ?C?CODESEG
      010083B8H   CODE     ---       ?C?CSTOPTR
      010083A6H   CODE     ---       ?C?CSTPTR
      0100843AH   CODE     ---       ?C?ICALL
      0100843EH   CODE     ---       ?C?ICALL2
      010083DAH   CODE     ---       ?C?IMUL
      010083ECH   CODE     ---       ?C?OFFXADD
      01008408H   CODE     ---       ?C?PLDCODE
      010083F8H   CODE     ---       ?C?PLDIIDATA
      00000000H   NUMBER   ---       ?C?XDATASEG
      01008012H   CODE     ---       ?C_START
      0100800FH   CODE     ---       ?C_STARTUP
      00000020H.6 BIT      BIT       ?DacCodecReset?BIT
      00000021H.2 BIT      BIT       ?LED1_Switch?BIT
      00000021H.2 BIT      BIT       ?LED2_Switch?BIT
      00000021H.2 BIT      BIT       ?LED3_Switch?BIT
      00000021H.2 BIT      BIT       ?LineInAaMuteControl?BIT
      00000021H.2 BIT      BIT       ?MicInAaMuteControl?BIT
      00000021H.2 BIT      BIT       ?PDSW_Control?BIT
      00000021H.2 BIT      BIT       ?PlaybackMinVolHandle?BIT
      00000054H   DATA     BYTE      ?PlaybackMinVolHandle?BYTE
      00000021H.2 BIT      BIT       ?PlaybackMuteControl?BIT
      00000021H.2 BIT      BIT       ?PlaybackVolControl?BIT
      00000054H   DATA     BYTE      ?PlaybackVolControl?BYTE
      00000021H.2 BIT      BIT       ?RecordfromSPDIF?BIT
      00000021H.2 BIT      BIT       ?RecordMonoEnable?BIT
      00000021H.2 BIT      BIT       ?RecordMuteControl?BIT
      00000021H.2 BIT      BIT       ?RecordVolControl?BIT
      00000054H   DATA     BYTE      ?RecordVolControl?BYTE
LX51 LINKER/LOCATER V4.47a                                                            03/27/2015  10:38:55  PAGE 14


      00000021H.2 BIT      BIT       ?SetPlayBitResolution?BIT
      00000021H.2 BIT      BIT       ?SetRecordBitResolution?BIT
      00000021H.2 BIT      BIT       ?SPDIFInMuteSwitch?BIT
      00000021H.2 BIT      BIT       ?SPDIFOutMuteSwitch?BIT
      00000021H.0 BIT      BIT       ?TackleAudioControl?BIT
      00000021H.0 BIT      BIT       ?TackleAudioStream?BIT
      00000020H.7 BIT      BIT       ?tackleClassCommand?BIT
      00000020H.6 BIT      BIT       ?TackleControlRequest?BIT
      00000021H.1 BIT      BIT       ?tackleFeatureMute?BIT
      00000021H.1 BIT      BIT       ?tackleFeatureVolume?BIT
      00000020H.7 BIT      BIT       ?tackleGetDescriptor?BIT
      00000021H.1 BIT      BIT       ?tackleSelector?BIT
      00000020H.7 BIT      BIT       ?tackleVendorCommand?BIT
      01009ABCH   CODE     ---       _C2MCopy
      01009954H   CODE     ---       _GPIO_Init
      01009C33H   CODE     ---       _GpioPuPdSetting
      01009EA7H   CODE     ---       _HandlePeriHidReport
      01009DB0H   CODE     ---       _InternSpiReadByte
      01009E79H   CODE     ---       _InternSpiWriteByte
      01008E6BH   CODE     ---       _LED_Config
      01009C9EH   CODE     ---       _M2MCopy
      01009DFFH   CODE     ---       _MemZero
      01008BDBH   CODE     ---       _ModIrReset
      010099F4H   CODE     ---       _SelectRecPath
      01009B94H   CODE     ---       _SetPlaySampleRate
      01009867H   CODE     ---       _SetRecordSampleRate
      0100922AH   CODE     ---       AApathVolControl
*SFR* 000000D0H.6 DATA     BIT       AC
*SFR* 000000E0H   DATA     BYTE      ACC
      010097A2H   CODE     ---       acquireConfigDscrData
      01009A29H   CODE     ---       acquireDeviceDscrData
      01009F11H   CODE     ---       acquireHidDscrData
      01009FEAH   CODE     ---       acquireHidReportDscrData
      01009FDDH   CODE     ---       acquireStringDscrData
      0200000EH   XDATA    BYTE      ADC_DAC_FORMAT
      0200005DH   XDATA    ---       ADC_VOL_CTRL
      010093F4H   CODE     ---       AdcCodecReset
*SFR* 000000D8H   DATA     BYTE      ADCON
      020000F0H   XDATA    BYTE      AGC_GLOBAL_CTRL
      020000F9H   XDATA    BYTE      AGC_MAX_GAIN
      020000FAH   XDATA    BYTE      AGC_MIN_GAIN
      020000F8H   XDATA    BYTE      AGC_SIM_CTRL
      020000F4H   XDATA    ---       AGC_TH_CTRL
      01009EE8H   CODE     ---       AnaCodecPowerReset
      01009D04H   CODE     ---       AntiPopProcedure
*SFR* 000000F0H   DATA     BYTE      B
      0100A05BH   CONST    ---       BaudRateTbl
      020000D9H   XDATA    BYTE      BONDING_OPTION
*SFR* 0000008EH   DATA     BYTE      CKCON
      020000BAH   XDATA    BYTE      CODEC_TEST_MONITOR
      010095E0H   CODE     ---       CodecReset
*SFR* 00000088H.3 DATA     BIT       CT0
*SFR* 00000088H.7 DATA     BIT       CT1
      020000FEH   XDATA    BYTE      CTRL_REG_H_ADDR
      020000FFH   XDATA    BYTE      CTRL_REG_L_ADDR
*SFR* 000000D0H.7 DATA     BIT       CY
      0200005BH   XDATA    ---       DAC_VOL_CTRL
      0100939BH   CODE     ---       DacCodecReset
      01009340H   CODE     ---       DelayAnalogMute
      0100A290H   CODE     ---       DEVICEDSCR
      0200006CH   XDATA    BYTE      DIGITAL_MIC_SETTING
*SFR* 00000083H   DATA     BYTE      DPH
*SFR* 00000082H   DATA     BYTE      DPL
*SFR* 000000A8H.7 DATA     BIT       EA
      01009EBDH   CODE     ---       epIntClearHalt
LX51 LINKER/LOCATER V4.47a                                                            03/27/2015  10:38:55  PAGE 15


      02000070H   XDATA    BYTE      EQ_A_BAND1_GAIN
      02000071H   XDATA    BYTE      EQ_A_BAND2_GAIN
      02000072H   XDATA    BYTE      EQ_A_BAND3_GAIN
      02000073H   XDATA    BYTE      EQ_A_BAND4_GAIN
      02000074H   XDATA    BYTE      EQ_A_BAND5_GAIN
      02000076H   XDATA    BYTE      EQ_A_BAND_NUM
      02000077H   XDATA    BYTE      EQ_A_COEFF_X
      02000075H   XDATA    BYTE      EQ_A_DIS_TEST_MODE
      02000040H   XDATA    BYTE      EQ_D_BAND1_GAIN
      02000041H   XDATA    BYTE      EQ_D_BAND2_GAIN
      02000042H   XDATA    BYTE      EQ_D_BAND3_GAIN
      02000043H   XDATA    BYTE      EQ_D_BAND4_GAIN
      02000044H   XDATA    BYTE      EQ_D_BAND5_GAIN
      02000046H   XDATA    BYTE      EQ_D_BAND_NUM
      02000047H   XDATA    BYTE      EQ_D_COEFF_X
      02000045H   XDATA    BYTE      EQ_D_DIS_TEST_MODE
      0200004AH   XDATA    BYTE      EQ_D_MODE_SETTING
      02000049H   XDATA    BYTE      EQ_D_SOUND_SWITCH
*SFR* 000000A8H.4 DATA     BIT       ES0
*SFR* 000000A8H.6 DATA     BIT       ES1
*SFR* 000000A8H.1 DATA     BIT       ET0
*SFR* 000000A8H.3 DATA     BIT       ET1
*SFR* 000000A8H.5 DATA     BIT       ET2
*SFR* 000000A8H   DATA     BIT       EX0
*SFR* 000000A8H.2 DATA     BIT       EX1
*SFR* 000000FDH   DATA     BYTE      EXCAH
*SFR* 000000FCH   DATA     BYTE      EXCAL
*SFR* 000000FFH   DATA     BYTE      EXCLH
*SFR* 000000FEH   DATA     BYTE      EXCLL
      02000057H   XDATA    BYTE      EXT_I2S_FORMAT
      02000039H   XDATA    ---       EXT_SPI_DATA
      0200003EH   XDATA    BYTE      EXT_SPI_INT
      02000059H   XDATA    BYTE      EXTERN_I2S_AND_DSP
*SFR* 000000D0H.5 DATA     BIT       F0
      0100A0C4H   CONST    ---       FeedbakTbl
      02000022H   XDATA    BYTE      FIFO_MAP_SETTING
*SFR* 000000D0H.1 DATA     BIT       FL
      0100903CH   CODE     ---       freq2CtrlByte
      00000069H   IDATA    ---       g_bAlternateSetting
      0000001FH   DATA     BYTE      g_bAttribute
      0000003CH   DATA     BYTE      g_bConfiguration
      0000001DH   DATA     BYTE      g_bCurrentMute
      0000008EH   IDATA    ---       g_bCurrentSampleRate
      0000001EH   DATA     BYTE      g_bCurrentSelector
      00000094H   IDATA    ---       g_bCurrentVolume
      00000029H   DATA     ---       g_bDataBuffer
      00000067H   DATA     BYTE      g_bExtIntEnable
      0100A013H   CONST    ---       g_bFeatureVolumeTbl
      00000065H   IDATA    ---       g_bHidI2CSInfo
      00000068H   IDATA    BYTE      g_bHidInRegsInfo
      00000045H   DATA     BYTE      g_bIndex
      0000004BH   DATA     BYTE      g_bIndex2
      0000006DH   IDATA    ---       g_bInputReport
      00000020H.5 BIT      BIT       g_bmAdcHPSEn
      00000020H.1 BIT      BIT       g_bmGpiRequest
      000000A0H   IDATA    ---       g_bMinVolume
      00000020H.2 BIT      BIT       g_bmRemoteWakeupEn
      00000020H.3 BIT      BIT       g_bmSelfPower
      00000020H.0 BIT      BIT       g_bmSpdifOutEn
      00000021H.4 BIT      BIT       g_bmUsbPuReset
      00000020H.4 BIT      BIT       g_bmUsbResume
      0000007DH   IDATA    ---       g_bOutputReport
      000000A6H   IDATA    BYTE      g_bRecordMuteGpio
      0100A097H   CONST    ---       g_bSamplingRateTbl
      00000048H   DATA     BYTE      g_bTemp
LX51 LINKER/LOCATER V4.47a                                                            03/27/2015  10:38:55  PAGE 16


      00000028H   DATA     BYTE      g_bTempA
      00000039H   DATA     BYTE      g_bTempB
      00000052H   DATA     BYTE      g_bTimer1Count
      0100A045H   CONST    ---       g_OriginControlTable1
      0000003FH   DATA     ---       g_pAudioControl
      00000026H   DATA     ---       g_pbConfigDscr
      0000005DH   DATA     ---       g_pbDataBuffer
      00000043H   DATA     ---       g_pbXdataStart
      0000003AH   DATA     ---       g_pControlTable
      0000004EH   DATA     ---       g_pHidDscr
      00000050H   DATA     ---       g_pHidReportDscr
      00000046H   DATA     ---       g_pProductStringDscr
      00000010H   DATA     ---       g_UsbCtrlCmnd
      00000018H   DATA     BYTE      g_UsbCtrlState
      00000019H   DATA     WORD      g_wDataLength
      0000001BH   DATA     WORD      g_wDataOffset
      0000004CH   DATA     WORD      g_wGpiData
      00000024H   DATA     WORD      g_wGpioDirMask
      0000003DH   DATA     WORD      g_wGpioIntMask
      00000062H   DATA     WORD      g_wIrTemp
      00000022H   DATA     WORD      g_wOldGpiData
      00000049H   DATA     WORD      g_wTemp
      00000041H   DATA     WORD      g_wTempA
      020000B9H   XDATA    BYTE      GAIN_TEST_PASS
*SFR* 00000088H.4 DATA     BIT       GATE0
*SFR* 00000090H   DATA     BIT       GATE1
*SFR* 00000088H.1 DATA     BIT       GF0
*SFR* 00000088H.2 DATA     BIT       GF1
      020000C2H   XDATA    ---       GPI_DATA
      020000E2H   XDATA    ---       GPI_REMOTE_WAKE
      020000C8H   XDATA    ---       GPIO_DEBOUNCE
      020000C4H   XDATA    ---       GPIO_DIR_CTRL
      020000C6H   XDATA    ---       GPIO_INT_MASK
      020000BBH   XDATA    BYTE      GPIO_IO_STRENGTH
      020000E4H   XDATA    ---       GPIO_PUPD_CTRL
      020000C0H   XDATA    ---       GPO_DATA
      020000DAH   XDATA    ---       GPO_SWITCH
      010086CDH   CODE     ---       HandleI2cSlave
      0100A00FH   CODE     ---       HandleInt0Isr
      01009C0CH   CODE     ---       HandleInt1Isr
      01009B6CH   CODE     ---       HandleSpiSlave
      0100851EH   CODE     ---       HandleTimer0Isr
      01009FD0H   CODE     ---       HandleTimer1Isr
      0100A010H   CODE     ---       HandleUartIsr
      0100808DH   CODE     ---       HandleUsbCtrlTransfer
      01009EFDH   CODE     ---       HandleUsbIntTransfer
      01009289H   CODE     ---       HandleUsbReset
      01009542H   CODE     ---       HandleUsbResume
      010098E2H   CODE     ---       HandleUsbSuspend
      010089E6H   CODE     ---       HubInSuspend
      02000093H   XDATA    BYTE      I2C_MASTER_CTRL_0
      02000094H   XDATA    BYTE      I2C_MASTER_CTRL_1
      02000095H   XDATA    BYTE      I2C_MASTER_CTRL_2
      02000083H   XDATA    ---       I2C_MASTER_DATA
      02000080H   XDATA    BYTE      I2C_MASTER_DEST_ADDR
      02000082H   XDATA    BYTE      I2C_MASTER_MAP_H
      02000081H   XDATA    BYTE      I2C_MASTER_MAP_L
      02000030H   XDATA    ---       I2C_SLV_DATA
      02000036H   XDATA    BYTE      I2C_SLV_MAP
      02000034H   XDATA    ---       I2C_SLV_STATUS
      02000037H   XDATA    BYTE      I2C_SLV_SYN_ACK
      02000A60H   XDATA    BYTE      I2CM_16BIT_MODE
      02000A61H   XDATA    ---       I2CM_DATA_BUF
      02000A71H   XDATA    BYTE      I2CM_DATA_LEN
      02000A74H   XDATA    BYTE      I2CM_DEV_ADDR
LX51 LINKER/LOCATER V4.47a                                                            03/27/2015  10:38:55  PAGE 17


      02000A72H   XDATA    ---       I2CM_MAP_ADDR
      01009678H   CODE     ---       I2cMasterRead
      01009593H   CODE     ---       I2cMasterWrite
      00000061H   DATA     BYTE      i_bTemp
      00000060H   DATA     BYTE      i_timercount
*SFR* 00000080H.7 DATA     BIT       IDLE
*SFR* 000000A8H   DATA     BYTE      IE
*SFR* 00000088H.1 DATA     BIT       IE0
*SFR* 00000088H.3 DATA     BIT       IE1
      0200009AH   XDATA    BYTE      IN_SPI_CTRL
      02000098H   XDATA    ---       IN_SPI_DATA
      010091CAH   CODE     ---       InputReportDataReady
      01008000H   CODE     ---       INT0_ISR
      01008006H   CODE     ---       INT1_ISR
*SFR* 000000B8H   DATA     BYTE      IP
      020000ACH   XDATA    ---       IR_CTRL
      020000A6H   XDATA    ---       IR_HEAD_CODE_CTRL
      020000A3H   XDATA    ---       IR_LOGIC0_CTRL
      020000A0H   XDATA    ---       IR_LOGIC1_CTRL
      020000B3H   XDATA    BYTE      IR_RC6_CTRL
      020000AFH   XDATA    ---       IR_RCV_DATA
      020000A9H   XDATA    ---       IR_REPEAT_CODE_CTRL
      02000015H   XDATA    BYTE      ISO_OUT_FRP_H
      02000014H   XDATA    BYTE      ISO_OUT_FRP_L
      02000019H   XDATA    BYTE      ISO_OUT_FSN_H
      02000018H   XDATA    BYTE      ISO_OUT_FSN_L
      02000017H   XDATA    BYTE      ISO_OUT_FWP_H
      02000016H   XDATA    BYTE      ISO_OUT_FWP_L
*SFR* 00000088H   DATA     BIT       IT0
*SFR* 00000088H.2 DATA     BIT       IT1
      0100A3ACH   CODE     ---       LANGIDSTRINGDSCR
      020000D4H   XDATA    BYTE      LED1_CYCLE_TIME
      020000D3H   XDATA    BYTE      LED1_ON_TIME
      01009F58H   CODE     ---       LED1_Switch
      020000D6H   XDATA    BYTE      LED2_CYCLE_TIME
      020000D5H   XDATA    BYTE      LED2_ON_TIME
      01009F67H   CODE     ---       LED2_Switch
      020000D8H   XDATA    BYTE      LED3_CYCLE_TIME
      020000D7H   XDATA    BYTE      LED3_ON_TIME
      01009F76H   CODE     ---       LED3_Switch
      020000CAH   XDATA    BYTE      LED_BUZZ_CTRL
      020000D2H   XDATA    BYTE      LED_DUTY
      020000D1H   XDATA    BYTE      LED_FREQ
      01009DE5H   CODE     ---       LineInAaMuteControl
*SFR* 00000088H.1 DATA     BIT       M00
*SFR* 00000088H.5 DATA     BIT       M01
*SFR* 00000088H.2 DATA     BIT       M10
*SFR* 00000088H.6 DATA     BIT       M11
      01008012H   CODE     ---       main
      0100A3B0H   CODE     ---       MANUFACTURESTRINGDSCR
      020000B5H   XDATA    BYTE      MCU_CLK_SWITCH
      01009DCBH   CODE     ---       MicInAaMuteControl
      020000B6H   XDATA    ---       MOD_CLK_CTRL
      020000B8H   XDATA    BYTE      MOD_RESET_CTRL
      0100A01FH   CONST    ---       OriginAcUnitTable1
      0100A028H   CONST    ---       OriginAudioControl1
      0100A004H   CODE     ---       OriginConfig
      0100A043H   CONST    ---       OriginDeviceControl1
      0100A012H   CODE     ---       OriginEvent
      0100A00EH   CODE     ---       OriginFeatureAgc
      01008868H   CODE     ---       OriginFeatureMute
      01008440H   CODE     ---       OriginFeatureVolume
      0100892FH   CODE     ---       OriginGpi
      010097E5H   CODE     ---       OriginInitialize
      0100A009H   CODE     ---       OriginIr
LX51 LINKER/LOCATER V4.47a                                                            03/27/2015  10:38:55  PAGE 18


      01009109H   CODE     ---       OriginRecordMute
      0100A011H   CODE     ---       OriginReset
      01009CE3H   CODE     ---       OriginSetFrequency1
      01009C58H   CODE     ---       OriginSetFrequency2
      010085FCH   CODE     ---       OriginSetSelector
*SFR* 000000D0H.2 DATA     BIT       OV
*SFR* 000000D0H   DATA     BIT       P
*SFR* 00000080H   DATA     BYTE      P0
*SFR* 00000090H   DATA     BYTE      P1
*SFR* 000000A0H   DATA     BYTE      P2
*SFR* 000000B0H   DATA     BYTE      P3
*SFR* 00000087H   DATA     BYTE      PCON
      01009F85H   CODE     ---       PDSW_Control
      02000013H   XDATA    BYTE      PERI2_INT_EN
      02000012H   XDATA    BYTE      PERI2_INT_STAT
      02000011H   XDATA    BYTE      PERI_INT_EN
      02000010H   XDATA    BYTE      PERI_INT_STAT
      01009D95H   CODE     ---       PeriClkReset
      01009E32H   CODE     ---       PeriIntInit
*SFR* 000000FBH   DATA     BYTE      PIDH
*SFR* 000000FAH   DATA     BYTE      PIDL
      0200000FH   XDATA    BYTE      PLAY_REC_RESOLUTION
      01009C7BH   CODE     ---       PlaybackMinVolHandle
      0100998AH   CODE     ---       PlaybackMuteControl
      010096C4H   CODE     ---       PlaybackVolControl
      02000056H   XDATA    BYTE      PLL_ADAPTIVE_EN
      02000058H   XDATA    BYTE      PLL_PD_DAC_DIS
      01009D5DH   CODE     ---       POR_Init
      01009CC1H   CODE     ---       PowerOnReset
      0100A3E2H   CODE     ---       PRODUCTSTRINGDSCR
*SFR* 000000B8H.4 DATA     BIT       PS0
*SFR* 000000B8H.6 DATA     BIT       PS1
*SFR* 000000D0H   DATA     BYTE      PSW
*SFR* 000000B8H.1 DATA     BIT       PT0
*SFR* 000000B8H.3 DATA     BIT       PT1
*SFR* 000000B8H.5 DATA     BIT       PT2
*SFR* 000000B8H   DATA     BIT       PX0
*SFR* 000000B8H.2 DATA     BIT       PX1
*SFR* 00000098H.2 DATA     BIT       RB8
      0200005AH   XDATA    BYTE      REC_SRC_TEST_SETTING
      01009FB2H   CODE     ---       RecordfromSPDIF
      01009FC1H   CODE     ---       RecordMonoEnable
      010099BFH   CODE     ---       RecordMuteControl
      01008F5BH   CODE     ---       RecordVolControl
      01009FF7H   CODE     ---       RefreshWdt
*SFR* 00000098H.4 DATA     BIT       REN
*SFR* 00000098H   DATA     BIT       RI
*SFR* 000000D0H.3 DATA     BIT       RS0
*SFR* 000000D0H.4 DATA     BIT       RS1
*SFR* 000000BAH   DATA     BYTE      S0RELH
*SFR* 000000AAH   DATA     BYTE      S0RELL
      0000008DH   IDATA    BYTE      s_bEpStatus
      0000005BH   DATA     ---       s_pStringDscrTmp
*SFR* 00000099H   DATA     BYTE      SBUF
*SFR* 00000098H   DATA     BYTE      SCON
      01009BBCH   CODE     ---       SetPlayBitResolution
      01009BE4H   CODE     ---       SetRecordBitResolution
      020000E8H   XDATA    BYTE      SHARE_MCU_PORT0
*SFR* 00000098H.7 DATA     BIT       SM0
*SFR* 00000098H.6 DATA     BIT       SM1
*SFR* 00000098H.5 DATA     BIT       SM2
*SFR* 00000088H.6 DATA     BIT       SMOD0
*SFR* 00000081H   DATA     BYTE      SP
      02000060H   XDATA    ---       SPDIF_FNUC_CTRL
      02000062H   XDATA    BYTE      SPDIF_IN_INT_STATUS
LX51 LINKER/LOCATER V4.47a                                                            03/27/2015  10:38:55  PAGE 19


      02000066H   XDATA    ---       SPDIF_IN_STATUS
      02000063H   XDATA    ---       SPDIF_OUT_STATUS
      01009FA3H   CODE     ---       SPDIFInMuteSwitch
      01009F94H   CODE     ---       SPDIFOutMuteSwitch
      01009ED3H   CODE     ---       StartSpdifOut
*SFR* 00000088H   DATA     BIT       STOP
      01009B44H   CODE     ---       SubmitUsbIntTransfer
      0100A2A4H   CODE     ---       T1_CONFIGDSCR
      0100A39AH   CODE     ---       T1_HIDDSCR
      01009710H   CODE     ---       TackleAudioControl
      01008280H   CODE     ---       TackleAudioStream
      0100949FH   CODE     ---       tackleClassCommand
      0100991DH   CODE     ---       tackleClearFeature
      01008CF9H   CODE     ---       TackleControlRequest
      01008D75H   CODE     ---       tackleFeatureMute
      01008A99H   CODE     ---       tackleFeatureVolume
      01009F37H   CODE     ---       tackleGetConfiguration
      0100879DH   CODE     ---       tackleGetDescriptor
      01009D40H   CODE     ---       tackleGetInterface
      0100944AH   CODE     ---       tackleGetStatus
      01008C79H   CODE     ---       tackleHidGetReport
      01009F25H   CODE     ---       tackleHidSetReport
      01008DF0H   CODE     ---       tackleHidSetReportData
      010094F1H   CODE     ---       tackleSelector
      01009E4AH   CODE     ---       tackleSetAddress
      010092E5H   CODE     ---       TackleSetAudioInterface
      01009A5CH   CODE     ---       tackleSetConfiguration
      0100975BH   CODE     ---       tackleSetFeature
      01009A8CH   CODE     ---       tackleSetInterface
      01008EE4H   CODE     ---       tackleVendorCommand
*SFR* 00000098H.3 DATA     BIT       TB8
*SFR* 00000088H   DATA     BYTE      TCON
      020000BFH   XDATA    BYTE      TEST_MODE_THD
*SFR* 00000088H.5 DATA     BIT       TF0
*SFR* 00000088H.7 DATA     BIT       TF1
*SFR* 0000008CH   DATA     BYTE      TH0
*SFR* 0000008DH   DATA     BYTE      TH1
*SFR* 00000098H.1 DATA     BIT       TI
      01008003H   CODE     ---       TIMER0_ISR
      01008009H   CODE     ---       TIMER1_ISR
      01009F48H   CODE     ---       Timer1Config
*SFR* 0000008AH   DATA     BYTE      TL0
*SFR* 0000008BH   DATA     BYTE      TL1
*SFR* 00000089H   DATA     BYTE      TMOD
*SFR* 00000088H.4 DATA     BIT       TR0
*SFR* 00000088H.6 DATA     BIT       TR1
      0100A424H   CODE     ---       TX_HIDREPORTDSCR
      02000053H   XDATA    BYTE      UART_BAUDRATE_SEL
      0100800CH   CODE     ---       UART_ISR
      0200006AH   XDATA    BYTE      UART_RX_DATA
      0200006BH   XDATA    BYTE      UART_TX_DATA
      01009826H   CODE     ---       UartBaudRateInit
      02000001H   XDATA    BYTE      USB_ADDRESS
      02000005H   XDATA    BYTE      USB_EP_CTRL_X
      0200000AH   XDATA    BYTE      USB_EP_DATA_X
      02000007H   XDATA    BYTE      USB_EP_FIFO_RST
      02000008H   XDATA    BYTE      USB_EP_INT
      02000009H   XDATA    BYTE      USB_EP_INT_EN
      02000004H   XDATA    BYTE      USB_EP_NUM
      02000006H   XDATA    BYTE      USB_EP_STAT_X
      02000000H   XDATA    BYTE      USB_GLOBAL_CTRL
      02000002H   XDATA    BYTE      USB_GLOBAL_INT
      02000003H   XDATA    BYTE      USB_GLOBAL_INT_EN
      020000B4H   XDATA    BYTE      USB_PHY_POW
      01009D23H   CODE     ---       usbEpReset
LX51 LINKER/LOCATER V4.47a                                                            03/27/2015  10:38:55  PAGE 20


      010098A7H   CODE     ---       variablesInit
      0100A416H   CODE     ---       VERSIONSTRINGDSCR
*SFR* 000000F9H   DATA     BYTE      VIDH
*SFR* 000000F8H   DATA     BYTE      VIDL
      0100962CH   CODE     ---       volumeReset
      0200005FH   XDATA    BYTE      VR_READ_AGC_CTRL
*SFR* 00000086H   DATA     BYTE      WDTREL



SYMBOL TABLE OF MODULE:  .\output\cm65xxfw (USB)

      VALUE       REP       CLASS    TYPE      SYMBOL NAME
      ====================================================
      ---         MODULE    ---      ---       USB
      0000001BH   PUBLIC    DATA     WORD      g_wDataOffset
      00000019H   PUBLIC    DATA     WORD      g_wDataLength
      00000018H   PUBLIC    DATA     BYTE      g_UsbCtrlState
      00000010H   PUBLIC    DATA     ---       g_UsbCtrlCmnd
      01009EFDH   PUBLIC    CODE     ---       HandleUsbIntTransfer
      01009B44H   PUBLIC    CODE     ---       SubmitUsbIntTransfer
      0100808DH   PUBLIC    CODE     ---       HandleUsbCtrlTransfer
      00000080H   SFRSYM    DATA     BYTE      P0
      00000090H   SFRSYM    DATA     BYTE      P1
      000000A0H   SFRSYM    DATA     BYTE      P2
      000000B0H   SFRSYM    DATA     BYTE      P3
      000000D0H.6 SFRSYM    DATA     BIT       AC
      000000A8H.7 SFRSYM    DATA     BIT       EA
      000000A8H   SFRSYM    DATA     BYTE      IE
      000000D0H.1 SFRSYM    DATA     BIT       FL
      000000B8H   SFRSYM    DATA     BYTE      IP
      00000098H   SFRSYM    DATA     BIT       RI
      000000D0H.7 SFRSYM    DATA     BIT       CY
      00000098H.1 SFRSYM    DATA     BIT       TI
      00000080H.7 SFRSYM    DATA     BIT       IDLE
      00000081H   SFRSYM    DATA     BYTE      SP
      000000D0H.2 SFRSYM    DATA     BIT       OV
      000000FBH   SFRSYM    DATA     BYTE      PIDH
      000000FAH   SFRSYM    DATA     BYTE      PIDL
      000000F9H   SFRSYM    DATA     BYTE      VIDH
      00000088H.1 SFRSYM    DATA     BIT       M00
      00000088H.5 SFRSYM    DATA     BIT       M01
      00000088H.2 SFRSYM    DATA     BIT       M10
      00000088H.6 SFRSYM    DATA     BIT       M11
      000000F8H   SFRSYM    DATA     BYTE      VIDL
      000000BAH   SFRSYM    DATA     BYTE      S0RELH
      00000099H   SFRSYM    DATA     BYTE      SBUF
      00000087H   SFRSYM    DATA     BYTE      PCON
      000000AAH   SFRSYM    DATA     BYTE      S0RELL
      00000098H   SFRSYM    DATA     BYTE      SCON
      00000089H   SFRSYM    DATA     BYTE      TMOD
      00000088H   SFRSYM    DATA     BYTE      TCON
      00000088H.1 SFRSYM    DATA     BIT       GF0
      00000088H.1 SFRSYM    DATA     BIT       IE0
      00000088H.2 SFRSYM    DATA     BIT       GF1
      00000088H.3 SFRSYM    DATA     BIT       IE1
      000000F0H   SFRSYM    DATA     BYTE      B
      000000E0H   SFRSYM    DATA     BYTE      ACC
      00000088H.3 SFRSYM    DATA     BIT       CT0
      00000088H   SFRSYM    DATA     BIT       STOP
      000000A8H.4 SFRSYM    DATA     BIT       ES0
      00000088H.7 SFRSYM    DATA     BIT       CT1
      000000A8H.6 SFRSYM    DATA     BIT       ES1
      000000A8H.1 SFRSYM    DATA     BIT       ET0
      000000A8H.3 SFRSYM    DATA     BIT       ET1
LX51 LINKER/LOCATER V4.47a                                                            03/27/2015  10:38:55  PAGE 21


      00000088H.5 SFRSYM    DATA     BIT       TF0
      000000A8H.5 SFRSYM    DATA     BIT       ET2
      00000088H.7 SFRSYM    DATA     BIT       TF1
      00000098H.2 SFRSYM    DATA     BIT       RB8
      0000008CH   SFRSYM    DATA     BYTE      TH0
      000000A8H   SFRSYM    DATA     BIT       EX0
      0000008DH   SFRSYM    DATA     BYTE      TH1
      00000088H   SFRSYM    DATA     BIT       IT0
      000000A8H.2 SFRSYM    DATA     BIT       EX1
      00000098H.3 SFRSYM    DATA     BIT       TB8
      00000088H.2 SFRSYM    DATA     BIT       IT1
      000000D0H   SFRSYM    DATA     BIT       P
      00000098H.7 SFRSYM    DATA     BIT       SM0
      0000008AH   SFRSYM    DATA     BYTE      TL0
      00000098H.6 SFRSYM    DATA     BIT       SM1
      0000008BH   SFRSYM    DATA     BYTE      TL1
      00000098H.5 SFRSYM    DATA     BIT       SM2
      00000088H.4 SFRSYM    DATA     BIT       GATE0
      000000B8H.4 SFRSYM    DATA     BIT       PS0
      00000090H   SFRSYM    DATA     BIT       GATE1
      000000B8H.6 SFRSYM    DATA     BIT       PS1
      000000B8H.1 SFRSYM    DATA     BIT       PT0
      00000086H   SFRSYM    DATA     BYTE      WDTREL
      000000D0H.3 SFRSYM    DATA     BIT       RS0
      000000B8H.3 SFRSYM    DATA     BIT       PT1
      000000D0H.4 SFRSYM    DATA     BIT       RS1
      000000B8H.5 SFRSYM    DATA     BIT       PT2
      00000088H.4 SFRSYM    DATA     BIT       TR0
      00000088H.6 SFRSYM    DATA     BIT       TR1
      000000B8H   SFRSYM    DATA     BIT       PX0
      000000B8H.2 SFRSYM    DATA     BIT       PX1
      00000083H   SFRSYM    DATA     BYTE      DPH
      00000082H   SFRSYM    DATA     BYTE      DPL
      00000088H.6 SFRSYM    DATA     BIT       SMOD0
      00000098H.4 SFRSYM    DATA     BIT       REN
      000000D8H   SFRSYM    DATA     BYTE      ADCON
      000000FDH   SFRSYM    DATA     BYTE      EXCAH
      000000FCH   SFRSYM    DATA     BYTE      EXCAL
      0000008EH   SFRSYM    DATA     BYTE      CKCON
      000000FFH   SFRSYM    DATA     BYTE      EXCLH
      000000D0H.5 SFRSYM    DATA     BIT       F0
      000000FEH   SFRSYM    DATA     BYTE      EXCLL
      000000D0H   SFRSYM    DATA     BYTE      PSW

      0100916AH   BLOCK     CODE     ---       LVL=0
      ---         BLOCKEND  ---      ---       LVL=0

      0100808DH   BLOCK     CODE     ---       LVL=0
      0100808DH   BLOCK     CODE     NEAR LAB  LVL=1
      00000053H   SYMBOL    DATA     BYTE      len
      ---         BLOCKEND  ---      ---       LVL=1
      0100808DH   LINE      CODE     ---       #30
      0100808DH   LINE      CODE     ---       #31
      0100808DH   LINE      CODE     ---       #35
      01008092H   LINE      CODE     ---       #36
      0100809CH   LINE      CODE     ---       #37
      0100809CH   LINE      CODE     ---       #38
      0100809FH   LINE      CODE     ---       #40
      010080A2H   LINE      CODE     ---       #42
      010080A8H   LINE      CODE     ---       #43
      010080ABH   LINE      CODE     ---       #44
      010080B1H   LINE      CODE     ---       #45
      010080B6H   LINE      CODE     ---       #46
      010080BCH   LINE      CODE     ---       #47
      010080C1H   LINE      CODE     ---       #48
LX51 LINKER/LOCATER V4.47a                                                            03/27/2015  10:38:55  PAGE 22


      010080C7H   LINE      CODE     ---       #49
      010080CCH   LINE      CODE     ---       #51
      010080D3H   LINE      CODE     ---       #52
      010080D3H   LINE      CODE     ---       #53
      010080ECH   LINE      CODE     ---       #55
      010080F2H   LINE      CODE     ---       #56
      010080F7H   LINE      CODE     ---       #58
      010080F7H   LINE      CODE     ---       #59
      010080FCH   LINE      CODE     ---       #60
      01008101H   LINE      CODE     ---       #62
      01008104H   LINE      CODE     ---       #64
      0100810AH   LINE      CODE     ---       #65
      0100810AH   LINE      CODE     ---       #66
      0100810CH   LINE      CODE     ---       #68
      0100810CH   LINE      CODE     ---       #69
      0100810CH   LINE      CODE     ---       #70
      01008112H   LINE      CODE     ---       #71
      01008112H   LINE      CODE     ---       #73
      0100811AH   LINE      CODE     ---       #74
      0100811DH   LINE      CODE     ---       #75
      0100811DH   LINE      CODE     ---       #78
      0100811DH   LINE      CODE     ---       #79
      0100812BH   LINE      CODE     ---       #80
      0100812BH   LINE      CODE     ---       #81
      01008130H   LINE      CODE     ---       #82
      01008135H   LINE      CODE     ---       #84
      01008138H   LINE      CODE     ---       #86
      0100813BH   LINE      CODE     ---       #88
      01008145H   LINE      CODE     ---       #89
      01008145H   LINE      CODE     ---       #90
      0100814FH   LINE      CODE     ---       #91
      01008153H   LINE      CODE     ---       #93
      01008156H   LINE      CODE     ---       #94
      01008156H   LINE      CODE     ---       #95
      01008159H   LINE      CODE     ---       #97
      01008160H   LINE      CODE     ---       #98
      01008160H   LINE      CODE     ---       #99
      01008160H   LINE      CODE     ---       #100
      01008160H   LINE      CODE     ---       #102
      01008165H   LINE      CODE     ---       #103
      01008168H   LINE      CODE     ---       #104
      0100816AH   LINE      CODE     ---       #106
      0100816AH   LINE      CODE     ---       #107
      0100816AH   LINE      CODE     ---       #108
      01008170H   LINE      CODE     ---       #109
      01008170H   LINE      CODE     ---       #110
      01008170H   LINE      CODE     ---       #113
      01008170H   LINE      CODE     ---       #114
      0100817AH   LINE      CODE     ---       #115
      0100817AH   LINE      CODE     ---       #116
      0100817FH   LINE      CODE     ---       #117
      0100817FH   LINE      CODE     ---       #118
      01008182H   LINE      CODE     ---       #119
      01008184H   LINE      CODE     ---       #121
      01008184H   LINE      CODE     ---       #122
      01008187H   LINE      CODE     ---       #123
      01008187H   LINE      CODE     ---       #125
      01008191H   LINE      CODE     ---       #126
      01008191H   LINE      CODE     ---       #127
      0100819BH   LINE      CODE     ---       #128
      0100819FH   LINE      CODE     ---       #130
      010081A5H   LINE      CODE     ---       #132
      010081A5H   LINE      CODE     ---       #133
      010081A5H   LINE      CODE     ---       #135
      010081AAH   LINE      CODE     ---       #136
LX51 LINKER/LOCATER V4.47a                                                            03/27/2015  10:38:55  PAGE 23


      010081AAH   LINE      CODE     ---       #137
      010081AAH   LINE      CODE     ---       #138
      010081AAH   LINE      CODE     ---       #139
      010081B1H   LINE      CODE     ---       #140
      010081B1H   LINE      CODE     ---       #141
      010081B6H   LINE      CODE     ---       #142
      010081B9H   LINE      CODE     ---       #144
      010081BFH   LINE      CODE     ---       #145
      010081BFH   LINE      CODE     ---       #147
      010081C2H   LINE      CODE     ---       #148
      010081C8H   LINE      CODE     ---       #150
      010081C8H   LINE      CODE     ---       #151
      010081C8H   LINE      CODE     ---       #152
      010081CFH   LINE      CODE     ---       #153
      010081CFH   LINE      CODE     ---       #154
      010081D4H   LINE      CODE     ---       #155
      010081D7H   LINE      CODE     ---       #156
      010081D7H   LINE      CODE     ---       #157
      010081D9H   LINE      CODE     ---       #158
      010081D9H   LINE      CODE     ---       #160
      010081E0H   LINE      CODE     ---       #161
      010081E0H   LINE      CODE     ---       #163
      010081E7H   LINE      CODE     ---       #164
      010081E7H   LINE      CODE     ---       #165
      010081E7H   LINE      CODE     ---       #166
      010081E7H   LINE      CODE     ---       #167
      010081E7H   LINE      CODE     ---       #168
      010081E7H   LINE      CODE     ---       #169
      010081E9H   LINE      CODE     ---       #170
      010081E9H   LINE      CODE     ---       #171
      010081E9H   LINE      CODE     ---       #172
      010081E9H   LINE      CODE     ---       #174
      010081E9H   LINE      CODE     ---       #175
      010081ECH   LINE      CODE     ---       #176
      010081ECH   LINE      CODE     ---       #178
      010081EEH   LINE      CODE     ---       #179
      010081EEH   LINE      CODE     ---       #181
      010081F5H   LINE      CODE     ---       #182
      010081F5H   LINE      CODE     ---       #183
      010081F5H   LINE      CODE     ---       #184
      010081F5H   LINE      CODE     ---       #185
      010081F8H   LINE      CODE     ---       #186
      010081FBH   LINE      CODE     ---       #187
      010081FDH   LINE      CODE     ---       #188
      010081FDH   LINE      CODE     ---       #190
      01008204H   LINE      CODE     ---       #191
      01008206H   LINE      CODE     ---       #193
      01008206H   LINE      CODE     ---       #195
      01008206H   LINE      CODE     ---       #196
      0100820BH   LINE      CODE     ---       #198
      01008212H   LINE      CODE     ---       #199
      01008212H   LINE      CODE     ---       #200
      01008216H   LINE      CODE     ---       #201
      01008216H   LINE      CODE     ---       #203
      0100821FH   LINE      CODE     ---       #204
      0100821FH   LINE      CODE     ---       #205
      0100821FH   LINE      CODE     ---       #208
      0100821FH   LINE      CODE     ---       #209
      01008226H   LINE      CODE     ---       #210
      01008226H   LINE      CODE     ---       #211
      0100822BH   LINE      CODE     ---       #212
      0100822BH   LINE      CODE     ---       #213
      01008232H   LINE      CODE     ---       #214
      01008232H   LINE      CODE     ---       #215
      01008236H   LINE      CODE     ---       #216
LX51 LINKER/LOCATER V4.47a                                                            03/27/2015  10:38:55  PAGE 24


      01008236H   LINE      CODE     ---       #218
      0100823DH   LINE      CODE     ---       #219
      01008242H   LINE      CODE     ---       #220
      01008242H   LINE      CODE     ---       #221
      01008244H   LINE      CODE     ---       #223
      01008244H   LINE      CODE     ---       #224
      0100824AH   LINE      CODE     ---       #225
      01008251H   LINE      CODE     ---       #226
      01008251H   LINE      CODE     ---       #227
      01008255H   LINE      CODE     ---       #228
      01008255H   LINE      CODE     ---       #230
      0100825DH   LINE      CODE     ---       #231
      01008260H   LINE      CODE     ---       #232
      01008260H   LINE      CODE     ---       #234
      01008263H   LINE      CODE     ---       #235
      01008263H   LINE      CODE     ---       #238
      01008263H   LINE      CODE     ---       #239
      0100826AH   LINE      CODE     ---       #240
      0100826AH   LINE      CODE     ---       #241
      01008271H   LINE      CODE     ---       #242
      01008271H   LINE      CODE     ---       #243
      01008275H   LINE      CODE     ---       #244
      01008275H   LINE      CODE     ---       #246
      0100827CH   LINE      CODE     ---       #247
      0100827FH   LINE      CODE     ---       #248
      0100827FH   LINE      CODE     ---       #249
      ---         BLOCKEND  ---      ---       LVL=0

      01009B44H   BLOCK     CODE     ---       LVL=0
      01009B44H   LINE      CODE     ---       #251
      01009B44H   LINE      CODE     ---       #252
      01009B44H   LINE      CODE     ---       #253
      01009B4AH   LINE      CODE     ---       #255
      01009B51H   LINE      CODE     ---       #257
      01009B54H   LINE      CODE     ---       #258
      01009B54H   LINE      CODE     ---       #259
      01009B5EH   LINE      CODE     ---       #260
      01009B65H   LINE      CODE     ---       #262
      01009B6BH   LINE      CODE     ---       #263
      ---         BLOCKEND  ---      ---       LVL=0

      01009EFDH   BLOCK     CODE     ---       LVL=0
      01009EFDH   LINE      CODE     ---       #265
      01009EFDH   LINE      CODE     ---       #266
      01009EFDH   LINE      CODE     ---       #267
      01009F03H   LINE      CODE     ---       #269
      01009F0AH   LINE      CODE     ---       #270
      01009F0AH   LINE      CODE     ---       #271
      01009F10H   LINE      CODE     ---       #272
      01009F10H   LINE      CODE     ---       #273
      ---         BLOCKEND  ---      ---       LVL=0

      ---         MODULE    ---      ---       AUDIO
      0000001FH   PUBLIC    DATA     BYTE      g_bAttribute
      0000001EH   PUBLIC    DATA     BYTE      g_bCurrentSelector
      000000A0H   PUBLIC    IDATA    ---       g_bMinVolume
      0000001DH   PUBLIC    DATA     BYTE      g_bCurrentMute
      00000094H   PUBLIC    IDATA    ---       g_bCurrentVolume
      0000008EH   PUBLIC    IDATA    ---       g_bCurrentSampleRate
      0100A045H   PUBLIC    CONST    ---       g_OriginControlTable1
      0100A043H   PUBLIC    CONST    ---       OriginDeviceControl1
      0100A028H   PUBLIC    CONST    ---       OriginAudioControl1
      0100A01FH   PUBLIC    CONST    ---       OriginAcUnitTable1
      0100A013H   PUBLIC    CONST    ---       g_bFeatureVolumeTbl
      010092E5H   PUBLIC    CODE     ---       TackleSetAudioInterface
LX51 LINKER/LOCATER V4.47a                                                            03/27/2015  10:38:55  PAGE 25


      00000021H.0 PUBLIC    BIT      BIT       ?TackleAudioStream?BIT
      01008280H   PUBLIC    CODE     ---       TackleAudioStream
      00000021H.0 PUBLIC    BIT      BIT       ?TackleAudioControl?BIT
      01009710H   PUBLIC    CODE     ---       TackleAudioControl
      00000021H.1 PUBLIC    BIT      BIT       ?tackleFeatureMute?BIT
      01008D75H   PUBLIC    CODE     ---       tackleFeatureMute
      00000021H.1 PUBLIC    BIT      BIT       ?tackleFeatureVolume?BIT
      01008A99H   PUBLIC    CODE     ---       tackleFeatureVolume
      00000021H.1 PUBLIC    BIT      BIT       ?tackleSelector?BIT
      010094F1H   PUBLIC    CODE     ---       tackleSelector
      01009109H   PUBLIC    CODE     ---       OriginRecordMute
      010085FCH   PUBLIC    CODE     ---       OriginSetSelector
      0100A00EH   PUBLIC    CODE     ---       OriginFeatureAgc
      01008440H   PUBLIC    CODE     ---       OriginFeatureVolume
      01008868H   PUBLIC    CODE     ---       OriginFeatureMute
      01009C58H   PUBLIC    CODE     ---       OriginSetFrequency2
      01009CE3H   PUBLIC    CODE     ---       OriginSetFrequency1
      01009ED3H   PUBLIC    CODE     ---       StartSpdifOut
      0100903CH   PUBLIC    CODE     ---       freq2CtrlByte
      00000080H   SFRSYM    DATA     BYTE      P0
      00000090H   SFRSYM    DATA     BYTE      P1
      000000A0H   SFRSYM    DATA     BYTE      P2
      000000B0H   SFRSYM    DATA     BYTE      P3
      000000D0H.6 SFRSYM    DATA     BIT       AC
      000000A8H.7 SFRSYM    DATA     BIT       EA
      000000A8H   SFRSYM    DATA     BYTE      IE
      000000D0H.1 SFRSYM    DATA     BIT       FL
      000000B8H   SFRSYM    DATA     BYTE      IP
      00000098H   SFRSYM    DATA     BIT       RI
      000000D0H.7 SFRSYM    DATA     BIT       CY
      00000098H.1 SFRSYM    DATA     BIT       TI
      00000080H.7 SFRSYM    DATA     BIT       IDLE
      00000081H   SFRSYM    DATA     BYTE      SP
      000000D0H.2 SFRSYM    DATA     BIT       OV
      000000FBH   SFRSYM    DATA     BYTE      PIDH
      000000FAH   SFRSYM    DATA     BYTE      PIDL
      000000F9H   SFRSYM    DATA     BYTE      VIDH
      00000088H.1 SFRSYM    DATA     BIT       M00
      00000088H.5 SFRSYM    DATA     BIT       M01
      00000088H.2 SFRSYM    DATA     BIT       M10
      00000088H.6 SFRSYM    DATA     BIT       M11
      000000F8H   SFRSYM    DATA     BYTE      VIDL
      000000BAH   SFRSYM    DATA     BYTE      S0RELH
      00000099H   SFRSYM    DATA     BYTE      SBUF
      00000087H   SFRSYM    DATA     BYTE      PCON
      000000AAH   SFRSYM    DATA     BYTE      S0RELL
      00000098H   SFRSYM    DATA     BYTE      SCON
      00000089H   SFRSYM    DATA     BYTE      TMOD
      00000088H   SFRSYM    DATA     BYTE      TCON
      00000088H.1 SFRSYM    DATA     BIT       GF0
      00000088H.1 SFRSYM    DATA     BIT       IE0
      00000088H.2 SFRSYM    DATA     BIT       GF1
      00000088H.3 SFRSYM    DATA     BIT       IE1
      000000F0H   SFRSYM    DATA     BYTE      B
      000000E0H   SFRSYM    DATA     BYTE      ACC
      00000088H.3 SFRSYM    DATA     BIT       CT0
      00000088H   SFRSYM    DATA     BIT       STOP
      000000A8H.4 SFRSYM    DATA     BIT       ES0
      00000088H.7 SFRSYM    DATA     BIT       CT1
      000000A8H.6 SFRSYM    DATA     BIT       ES1
      000000A8H.1 SFRSYM    DATA     BIT       ET0
      000000A8H.3 SFRSYM    DATA     BIT       ET1
      00000088H.5 SFRSYM    DATA     BIT       TF0
      000000A8H.5 SFRSYM    DATA     BIT       ET2
      00000088H.7 SFRSYM    DATA     BIT       TF1
LX51 LINKER/LOCATER V4.47a                                                            03/27/2015  10:38:55  PAGE 26


      00000098H.2 SFRSYM    DATA     BIT       RB8
      0000008CH   SFRSYM    DATA     BYTE      TH0
      000000A8H   SFRSYM    DATA     BIT       EX0
      0000008DH   SFRSYM    DATA     BYTE      TH1
      00000088H   SFRSYM    DATA     BIT       IT0
      000000A8H.2 SFRSYM    DATA     BIT       EX1
      00000098H.3 SFRSYM    DATA     BIT       TB8
      00000088H.2 SFRSYM    DATA     BIT       IT1
      000000D0H   SFRSYM    DATA     BIT       P
      00000098H.7 SFRSYM    DATA     BIT       SM0
      0000008AH   SFRSYM    DATA     BYTE      TL0
      00000098H.6 SFRSYM    DATA     BIT       SM1
      0000008BH   SFRSYM    DATA     BYTE      TL1
      00000098H.5 SFRSYM    DATA     BIT       SM2
      00000088H.4 SFRSYM    DATA     BIT       GATE0
      000000B8H.4 SFRSYM    DATA     BIT       PS0
      00000090H   SFRSYM    DATA     BIT       GATE1
      000000B8H.6 SFRSYM    DATA     BIT       PS1
      000000B8H.1 SFRSYM    DATA     BIT       PT0
      00000086H   SFRSYM    DATA     BYTE      WDTREL
      000000D0H.3 SFRSYM    DATA     BIT       RS0
      000000B8H.3 SFRSYM    DATA     BIT       PT1
      000000D0H.4 SFRSYM    DATA     BIT       RS1
      000000B8H.5 SFRSYM    DATA     BIT       PT2
      00000088H.4 SFRSYM    DATA     BIT       TR0
      00000088H.6 SFRSYM    DATA     BIT       TR1
      000000B8H   SFRSYM    DATA     BIT       PX0
      000000B8H.2 SFRSYM    DATA     BIT       PX1
      00000083H   SFRSYM    DATA     BYTE      DPH
      00000082H   SFRSYM    DATA     BYTE      DPL
      00000088H.6 SFRSYM    DATA     BIT       SMOD0
      00000098H.4 SFRSYM    DATA     BIT       REN
      000000D8H   SFRSYM    DATA     BYTE      ADCON
      000000FDH   SFRSYM    DATA     BYTE      EXCAH
      000000FCH   SFRSYM    DATA     BYTE      EXCAL
      0000008EH   SFRSYM    DATA     BYTE      CKCON
      000000FFH   SFRSYM    DATA     BYTE      EXCLH
      000000D0H.5 SFRSYM    DATA     BIT       F0
      000000FEH   SFRSYM    DATA     BYTE      EXCLL
      000000D0H   SFRSYM    DATA     BYTE      PSW

      01008FD0H   BLOCK     CODE     ---       LVL=0
      ---         BLOCKEND  ---      ---       LVL=0

      0100903CH   BLOCK     CODE     ---       LVL=0
      0100903CH   LINE      CODE     ---       #138
      0100903CH   LINE      CODE     ---       #139
      0100903CH   LINE      CODE     ---       #140
      0100903FH   LINE      CODE     ---       #141
      0100903FH   LINE      CODE     ---       #142
      0100906DH   LINE      CODE     ---       #144
      0100906DH   LINE      CODE     ---       #145
      01009074H   LINE      CODE     ---       #147
      01009078H   LINE      CODE     ---       #148
      01009078H   LINE      CODE     ---       #150
      0100907DH   LINE      CODE     ---       #151
      0100907DH   LINE      CODE     ---       #152
      01009080H   LINE      CODE     ---       #153
      01009081H   LINE      CODE     ---       #155
      01009081H   LINE      CODE     ---       #156
      0100908BH   LINE      CODE     ---       #157
      0100908BH   LINE      CODE     ---       #158
      0100908DH   LINE      CODE     ---       #160
      0100908DH   LINE      CODE     ---       #161
      01009092H   LINE      CODE     ---       #162
LX51 LINKER/LOCATER V4.47a                                                            03/27/2015  10:38:55  PAGE 27


      01009092H   LINE      CODE     ---       #164
      01009095H   LINE      CODE     ---       #165
      01009095H   LINE      CODE     ---       #167
      010090A5H   LINE      CODE     ---       #168
      010090A5H   LINE      CODE     ---       #169
      ---         BLOCKEND  ---      ---       LVL=0

      01009ED3H   BLOCK     CODE     ---       LVL=0
      01009ED3H   LINE      CODE     ---       #171
      01009ED3H   LINE      CODE     ---       #172
      01009ED3H   LINE      CODE     ---       #173
      01009ED6H   LINE      CODE     ---       #174
      01009ED9H   LINE      CODE     ---       #176
      01009EDEH   LINE      CODE     ---       #177
      01009EDEH   LINE      CODE     ---       #178
      01009EE0H   LINE      CODE     ---       #179
      01009EE2H   LINE      CODE     ---       #181
      01009EE2H   LINE      CODE     ---       #182
      01009EE7H   LINE      CODE     ---       #183
      01009EE7H   LINE      CODE     ---       #184
      ---         BLOCKEND  ---      ---       LVL=0

      01009CE3H   BLOCK     CODE     ---       LVL=0
      01009CE3H   LINE      CODE     ---       #186
      01009CE3H   LINE      CODE     ---       #187
      01009CE3H   LINE      CODE     ---       #188
      01009CE6H   LINE      CODE     ---       #189
      01009CE9H   LINE      CODE     ---       #191
      01009CEEH   LINE      CODE     ---       #193
      01009CEEH   LINE      CODE     ---       #194
      01009CF4H   LINE      CODE     ---       #195
      01009CF4H   LINE      CODE     ---       #196
      01009CF6H   LINE      CODE     ---       #197
      01009CF8H   LINE      CODE     ---       #199
      01009CF8H   LINE      CODE     ---       #200
      01009CFDH   LINE      CODE     ---       #201
      01009CFDH   LINE      CODE     ---       #203
      01009D00H   LINE      CODE     ---       #204
      01009D00H   LINE      CODE     ---       #205
      01009D03H   LINE      CODE     ---       #206
      01009D03H   LINE      CODE     ---       #207
      ---         BLOCKEND  ---      ---       LVL=0

      01009C58H   BLOCK     CODE     ---       LVL=0
      01009C58H   LINE      CODE     ---       #209
      01009C58H   LINE      CODE     ---       #210
      01009C58H   LINE      CODE     ---       #211
      01009C5BH   LINE      CODE     ---       #212
      01009C5EH   LINE      CODE     ---       #214
      01009C63H   LINE      CODE     ---       #216
      01009C63H   LINE      CODE     ---       #217
      01009C69H   LINE      CODE     ---       #218
      01009C69H   LINE      CODE     ---       #219
      01009C6BH   LINE      CODE     ---       #220
      01009C6DH   LINE      CODE     ---       #222
      01009C6DH   LINE      CODE     ---       #223
      01009C72H   LINE      CODE     ---       #224
      01009C72H   LINE      CODE     ---       #227
      ---         BLOCKEND  ---      ---       LVL=0

      01008868H   BLOCK     CODE     ---       LVL=0
      01008868H   LINE      CODE     ---       #230
      01008868H   LINE      CODE     ---       #231
      01008868H   LINE      CODE     ---       #232
      01008887H   LINE      CODE     ---       #233
LX51 LINKER/LOCATER V4.47a                                                            03/27/2015  10:38:55  PAGE 28


      01008887H   LINE      CODE     ---       #234
      01008887H   LINE      CODE     ---       #235
      0100888CH   LINE      CODE     ---       #236
      0100888CH   LINE      CODE     ---       #237
      01008893H   LINE      CODE     ---       #239
      01008898H   LINE      CODE     ---       #241
      0100889EH   LINE      CODE     ---       #242
      0100889EH   LINE      CODE     ---       #243
      010088A0H   LINE      CODE     ---       #244
      010088A0H   LINE      CODE     ---       #245
      010088A2H   LINE      CODE     ---       #247
      010088A2H   LINE      CODE     ---       #248
      010088A9H   LINE      CODE     ---       #250
      010088AEH   LINE      CODE     ---       #252
      010088B1H   LINE      CODE     ---       #253
      010088B1H   LINE      CODE     ---       #254
      010088B6H   LINE      CODE     ---       #255
      010088B6H   LINE      CODE     ---       #256
      010088B6H   LINE      CODE     ---       #257
      010088B6H   LINE      CODE     ---       #259
      010088B6H   LINE      CODE     ---       #260
      010088B6H   LINE      CODE     ---       #261
      010088B6H   LINE      CODE     ---       #262
      010088BBH   LINE      CODE     ---       #263
      010088BBH   LINE      CODE     ---       #264
      010088BCH   LINE      CODE     ---       #265
      010088BCH   LINE      CODE     ---       #267
      010088BCH   LINE      CODE     ---       #268
      010088C5H   LINE      CODE     ---       #269
      010088C5H   LINE      CODE     ---       #270
      010088C5H   LINE      CODE     ---       #271
      010088C8H   LINE      CODE     ---       #272
      010088CAH   LINE      CODE     ---       #274
      010088CAH   LINE      CODE     ---       #275
      010088CDH   LINE      CODE     ---       #276
      010088CFH   LINE      CODE     ---       #278
      010088CFH   LINE      CODE     ---       #279
      010088D2H   LINE      CODE     ---       #280
      010088D2H   LINE      CODE     ---       #281
      010088D2H   LINE      CODE     ---       #282
      010088D2H   LINE      CODE     ---       #284
      010088E8H   LINE      CODE     ---       #285
      010088E8H   LINE      CODE     ---       #286
      010088EFH   LINE      CODE     ---       #288
      010088F1H   LINE      CODE     ---       #289
      010088F3H   LINE      CODE     ---       #291
      010088F3H   LINE      CODE     ---       #292
      010088FAH   LINE      CODE     ---       #294
      010088FFH   LINE      CODE     ---       #295
      010088FFH   LINE      CODE     ---       #296
      010088FFH   LINE      CODE     ---       #298
      010088FFH   LINE      CODE     ---       #299
      01008904H   LINE      CODE     ---       #300
      01008904H   LINE      CODE     ---       #301
      01008906H   LINE      CODE     ---       #302
      01008908H   LINE      CODE     ---       #304
      01008908H   LINE      CODE     ---       #305
      0100890DH   LINE      CODE     ---       #306
      0100890DH   LINE      CODE     ---       #307
      0100890DH   LINE      CODE     ---       #309
      0100890DH   LINE      CODE     ---       #310
      01008912H   LINE      CODE     ---       #311
      01008912H   LINE      CODE     ---       #312
      01008914H   LINE      CODE     ---       #313
      01008916H   LINE      CODE     ---       #315
LX51 LINKER/LOCATER V4.47a                                                            03/27/2015  10:38:55  PAGE 29


      01008916H   LINE      CODE     ---       #316
      0100891BH   LINE      CODE     ---       #317
      0100891BH   LINE      CODE     ---       #318
      0100891BH   LINE      CODE     ---       #320
      0100891BH   LINE      CODE     ---       #321
      01008920H   LINE      CODE     ---       #322
      01008920H   LINE      CODE     ---       #323
      01008925H   LINE      CODE     ---       #324
      01008925H   LINE      CODE     ---       #325
      01008927H   LINE      CODE     ---       #326
      01008929H   LINE      CODE     ---       #328
      01008929H   LINE      CODE     ---       #329
      0100892EH   LINE      CODE     ---       #330
      0100892EH   LINE      CODE     ---       #331
      0100892EH   LINE      CODE     ---       #332
      0100892EH   LINE      CODE     ---       #334
      0100892EH   LINE      CODE     ---       #335
      0100892EH   LINE      CODE     ---       #336
      0100892EH   LINE      CODE     ---       #337
      ---         BLOCKEND  ---      ---       LVL=0

      01008440H   BLOCK     CODE     ---       LVL=0
      01008440H   LINE      CODE     ---       #339
      01008440H   LINE      CODE     ---       #340
      01008440H   LINE      CODE     ---       #341
      01008447H   LINE      CODE     ---       #343
      01008462H   LINE      CODE     ---       #344
      01008462H   LINE      CODE     ---       #345
      01008462H   LINE      CODE     ---       #346
      01008471H   LINE      CODE     ---       #347
      01008471H   LINE      CODE     ---       #348
      01008478H   LINE      CODE     ---       #350
      01008480H   LINE      CODE     ---       #351
      01008480H   LINE      CODE     ---       #353
      01008480H   LINE      CODE     ---       #354
      01008490H   LINE      CODE     ---       #355
      01008490H   LINE      CODE     ---       #356
      01008490H   LINE      CODE     ---       #358
      01008490H   LINE      CODE     ---       #359
      01008490H   LINE      CODE     ---       #360
      01008490H   LINE      CODE     ---       #361
      01008495H   LINE      CODE     ---       #362
      01008495H   LINE      CODE     ---       #363
      01008496H   LINE      CODE     ---       #364
      01008496H   LINE      CODE     ---       #366
      01008496H   LINE      CODE     ---       #367
      0100849FH   LINE      CODE     ---       #368
      0100849FH   LINE      CODE     ---       #369
      0100849FH   LINE      CODE     ---       #370
      010084A2H   LINE      CODE     ---       #371
      010084A4H   LINE      CODE     ---       #373
      010084A4H   LINE      CODE     ---       #374
      010084A7H   LINE      CODE     ---       #375
      010084A9H   LINE      CODE     ---       #377
      010084A9H   LINE      CODE     ---       #378
      010084ACH   LINE      CODE     ---       #379
      010084ACH   LINE      CODE     ---       #380
      010084ACH   LINE      CODE     ---       #381
      010084ACH   LINE      CODE     ---       #383
      010084BBH   LINE      CODE     ---       #384
      010084BBH   LINE      CODE     ---       #385
      010084C0H   LINE      CODE     ---       #386
      010084C0H   LINE      CODE     ---       #388
      010084CBH   LINE      CODE     ---       #389
      010084CBH   LINE      CODE     ---       #390
LX51 LINKER/LOCATER V4.47a                                                            03/27/2015  10:38:55  PAGE 30


      010084CFH   LINE      CODE     ---       #391
      010084D1H   LINE      CODE     ---       #393
      010084D1H   LINE      CODE     ---       #394
      010084E1H   LINE      CODE     ---       #395
      010084E1H   LINE      CODE     ---       #396
      010084E1H   LINE      CODE     ---       #398
      010084E1H   LINE      CODE     ---       #399
      010084EEH   LINE      CODE     ---       #400
      010084EEH   LINE      CODE     ---       #401
      010084F5H   LINE      CODE     ---       #402
      010084F5H   LINE      CODE     ---       #404
      010084F7H   LINE      CODE     ---       #405
      010084F9H   LINE      CODE     ---       #407
      010084F9H   LINE      CODE     ---       #408
      01008506H   LINE      CODE     ---       #409
      01008506H   LINE      CODE     ---       #410
      0100850DH   LINE      CODE     ---       #411
      0100850DH   LINE      CODE     ---       #413
      0100851DH   LINE      CODE     ---       #414
      0100851DH   LINE      CODE     ---       #416
      0100851DH   LINE      CODE     ---       #417
      0100851DH   LINE      CODE     ---       #418
      0100851DH   LINE      CODE     ---       #419
      ---         BLOCKEND  ---      ---       LVL=0

      0100A00EH   BLOCK     CODE     ---       LVL=0
      0100A00EH   LINE      CODE     ---       #421
      0100A00EH   LINE      CODE     ---       #422
      0100A00EH   LINE      CODE     ---       #423
      ---         BLOCKEND  ---      ---       LVL=0

      010085FCH   BLOCK     CODE     ---       LVL=0
      010085FCH   LINE      CODE     ---       #425
      010085FCH   LINE      CODE     ---       #426
      010085FCH   LINE      CODE     ---       #427
      01008612H   LINE      CODE     ---       #428
      01008612H   LINE      CODE     ---       #429
      01008612H   LINE      CODE     ---       #431
      01008614H   LINE      CODE     ---       #433
      0100861CH   LINE      CODE     ---       #434
      01008628H   LINE      CODE     ---       #436
      0100862DH   LINE      CODE     ---       #437
      0100862DH   LINE      CODE     ---       #438
      01008631H   LINE      CODE     ---       #439
      01008633H   LINE      CODE     ---       #441
      01008633H   LINE      CODE     ---       #442
      0100863AH   LINE      CODE     ---       #443
      0100863AH   LINE      CODE     ---       #445
      0100863AH   LINE      CODE     ---       #446
      0100863CH   LINE      CODE     ---       #448
      0100863CH   LINE      CODE     ---       #450
      01008641H   LINE      CODE     ---       #452
      0100864DH   LINE      CODE     ---       #453
      01008659H   LINE      CODE     ---       #455
      0100865EH   LINE      CODE     ---       #456
      0100865EH   LINE      CODE     ---       #457
      01008662H   LINE      CODE     ---       #458
      01008664H   LINE      CODE     ---       #460
      01008664H   LINE      CODE     ---       #461
      0100866BH   LINE      CODE     ---       #462
      0100866BH   LINE      CODE     ---       #464
      0100866BH   LINE      CODE     ---       #465
      0100866DH   LINE      CODE     ---       #467
      0100866DH   LINE      CODE     ---       #469
      0100866FH   LINE      CODE     ---       #471
LX51 LINKER/LOCATER V4.47a                                                            03/27/2015  10:38:55  PAGE 31


      0100867AH   LINE      CODE     ---       #472
      01008689H   LINE      CODE     ---       #474
      0100868EH   LINE      CODE     ---       #475
      0100868EH   LINE      CODE     ---       #476
      01008692H   LINE      CODE     ---       #477
      01008694H   LINE      CODE     ---       #479
      01008694H   LINE      CODE     ---       #480
      0100869BH   LINE      CODE     ---       #481
      0100869BH   LINE      CODE     ---       #483
      010086A0H   LINE      CODE     ---       #484
      010086A0H   LINE      CODE     ---       #486
      010086A0H   LINE      CODE     ---       #488
      010086A5H   LINE      CODE     ---       #490
      010086AAH   LINE      CODE     ---       #491
      010086AAH   LINE      CODE     ---       #492
      010086ACH   LINE      CODE     ---       #493
      010086AEH   LINE      CODE     ---       #495
      010086AEH   LINE      CODE     ---       #496
      010086B3H   LINE      CODE     ---       #497
      010086B3H   LINE      CODE     ---       #498
      010086B3H   LINE      CODE     ---       #500
      010086B3H   LINE      CODE     ---       #501
      010086B3H   LINE      CODE     ---       #502
      010086B3H   LINE      CODE     ---       #503
      ---         BLOCKEND  ---      ---       LVL=0

      01009109H   BLOCK     CODE     ---       LVL=0
      01009109H   LINE      CODE     ---       #505
      01009109H   LINE      CODE     ---       #506
      01009109H   LINE      CODE     ---       #507
      0100910FH   LINE      CODE     ---       #508
      0100910FH   LINE      CODE     ---       #509
      01009114H   LINE      CODE     ---       #510
      01009114H   LINE      CODE     ---       #511
      01009117H   LINE      CODE     ---       #512
      0100911CH   LINE      CODE     ---       #513
      0100911CH   LINE      CODE     ---       #514
      0100911EH   LINE      CODE     ---       #516
      0100911EH   LINE      CODE     ---       #517
      01009121H   LINE      CODE     ---       #518
      01009126H   LINE      CODE     ---       #519
      01009126H   LINE      CODE     ---       #520
      01009126H   LINE      CODE     ---       #521
      01009128H   LINE      CODE     ---       #523
      01009128H   LINE      CODE     ---       #524
      01009136H   LINE      CODE     ---       #525
      01009136H   LINE      CODE     ---       #526
      01009136H   LINE      CODE     ---       #527
      01009139H   LINE      CODE     ---       #528
      0100913BH   LINE      CODE     ---       #530
      0100913BH   LINE      CODE     ---       #531
      0100913EH   LINE      CODE     ---       #532
      01009140H   LINE      CODE     ---       #534
      01009140H   LINE      CODE     ---       #535
      01009143H   LINE      CODE     ---       #536
      01009143H   LINE      CODE     ---       #538
      01009143H   LINE      CODE     ---       #540
      01009143H   LINE      CODE     ---       #542
      01009149H   LINE      CODE     ---       #543
      01009149H   LINE      CODE     ---       #544
      0100914EH   LINE      CODE     ---       #546
      01009155H   LINE      CODE     ---       #548
      01009157H   LINE      CODE     ---       #549
      01009159H   LINE      CODE     ---       #551
      01009159H   LINE      CODE     ---       #552
LX51 LINKER/LOCATER V4.47a                                                            03/27/2015  10:38:55  PAGE 32


      0100915DH   LINE      CODE     ---       #554
      01009164H   LINE      CODE     ---       #556
      01009169H   LINE      CODE     ---       #557
      01009169H   LINE      CODE     ---       #558
      01009169H   LINE      CODE     ---       #559
      ---         BLOCKEND  ---      ---       LVL=0

      010094F1H   BLOCK     CODE     ---       LVL=0
      00000021H.1 SYMBOL    BIT      BIT       dataStage
      010094F1H   LINE      CODE     ---       #561
      010094F1H   LINE      CODE     ---       #562
      010094F1H   LINE      CODE     ---       #563
      010094F6H   LINE      CODE     ---       #564
      010094F6H   LINE      CODE     ---       #565
      01009506H   LINE      CODE     ---       #566
      01009506H   LINE      CODE     ---       #567
      01009506H   LINE      CODE     ---       #568
      01009509H   LINE      CODE     ---       #569
      0100950BH   LINE      CODE     ---       #571
      0100950BH   LINE      CODE     ---       #572
      0100950BH   LINE      CODE     ---       #573
      0100950DH   LINE      CODE     ---       #575
      0100950DH   LINE      CODE     ---       #576
      01009510H   LINE      CODE     ---       #577
      01009512H   LINE      CODE     ---       #579
      01009515H   LINE      CODE     ---       #581
      01009517H   LINE      CODE     ---       #583
      01009517H   LINE      CODE     ---       #584
      01009519H   LINE      CODE     ---       #585
      01009519H   LINE      CODE     ---       #587
      01009519H   LINE      CODE     ---       #588
      0100951FH   LINE      CODE     ---       #589
      01009521H   LINE      CODE     ---       #591
      01009521H   LINE      CODE     ---       #592
      01009526H   LINE      CODE     ---       #593
      01009526H   LINE      CODE     ---       #594
      01009529H   LINE      CODE     ---       #595
      01009529H   LINE      CODE     ---       #596
      01009529H   LINE      CODE     ---       #597
      01009532H   LINE      CODE     ---       #598
      01009534H   LINE      CODE     ---       #600
      01009534H   LINE      CODE     ---       #601
      01009540H   LINE      CODE     ---       #602
      01009540H   LINE      CODE     ---       #603
      01009540H   LINE      CODE     ---       #604
      01009540H   LINE      CODE     ---       #606
      01009541H   LINE      CODE     ---       #607
      ---         BLOCKEND  ---      ---       LVL=0

      01008A99H   BLOCK     CODE     ---       LVL=0
      00000021H.1 SYMBOL    BIT      BIT       dataStage
      01008A99H   LINE      CODE     ---       #609
      01008A99H   LINE      CODE     ---       #610
      01008A99H   LINE      CODE     ---       #611
      01008A9EH   LINE      CODE     ---       #612
      01008A9EH   LINE      CODE     ---       #613
      01008AAEH   LINE      CODE     ---       #614
      01008AAEH   LINE      CODE     ---       #615
      01008AAEH   LINE      CODE     ---       #616
      01008AB3H   LINE      CODE     ---       #617
      01008AB6H   LINE      CODE     ---       #618
      01008ABCH   LINE      CODE     ---       #619
      01008ABEH   LINE      CODE     ---       #621
      01008ABEH   LINE      CODE     ---       #622
      01008ABEH   LINE      CODE     ---       #623
LX51 LINKER/LOCATER V4.47a                                                            03/27/2015  10:38:55  PAGE 33


      01008AD8H   LINE      CODE     ---       #625
      01008ADDH   LINE      CODE     ---       #626
      01008ADDH   LINE      CODE     ---       #627
      01008AE0H   LINE      CODE     ---       #628
      01008AE0H   LINE      CODE     ---       #629
      01008AE3H   LINE      CODE     ---       #630
      01008AE5H   LINE      CODE     ---       #632
      01008AE5H   LINE      CODE     ---       #633
      01008AE8H   LINE      CODE     ---       #634
      01008AEBH   LINE      CODE     ---       #635
      01008AEDH   LINE      CODE     ---       #637
      01008AEDH   LINE      CODE     ---       #638
      01008AEFH   LINE      CODE     ---       #639
      01008AEFH   LINE      CODE     ---       #641
      01008AF5H   LINE      CODE     ---       #642
      01008AF8H   LINE      CODE     ---       #643
      01008AFAH   LINE      CODE     ---       #645
      01008AFAH   LINE      CODE     ---       #646
      01008B00H   LINE      CODE     ---       #647
      01008B00H   LINE      CODE     ---       #648
      01008B03H   LINE      CODE     ---       #649
      01008B03H   LINE      CODE     ---       #650
      01008B08H   LINE      CODE     ---       #651
      01008B0DH   LINE      CODE     ---       #652
      01008B0FH   LINE      CODE     ---       #654
      01008B0FH   LINE      CODE     ---       #655
      01008B14H   LINE      CODE     ---       #657
      01008B19H   LINE      CODE     ---       #658
      01008B19H   LINE      CODE     ---       #659
      01008B22H   LINE      CODE     ---       #660
      01008B24H   LINE      CODE     ---       #662
      01008B24H   LINE      CODE     ---       #663
      01008B29H   LINE      CODE     ---       #664
      01008B29H   LINE      CODE     ---       #666
      01008B2DH   LINE      CODE     ---       #667
      01008B2DH   LINE      CODE     ---       #668
      01008B30H   LINE      CODE     ---       #669
      01008B30H   LINE      CODE     ---       #671
      01008B36H   LINE      CODE     ---       #672
      01008B36H   LINE      CODE     ---       #673
      01008B38H   LINE      CODE     ---       #675
      01008B38H   LINE      CODE     ---       #676
      01008B3AH   LINE      CODE     ---       #677
      01008B3AH   LINE      CODE     ---       #678
      01008B3AH   LINE      CODE     ---       #680
      01008B3BH   LINE      CODE     ---       #681
      ---         BLOCKEND  ---      ---       LVL=0

      01008D75H   BLOCK     CODE     ---       LVL=0
      00000021H.1 SYMBOL    BIT      BIT       dataStage
      01008D75H   LINE      CODE     ---       #683
      01008D75H   LINE      CODE     ---       #684
      01008D75H   LINE      CODE     ---       #685
      01008D7AH   LINE      CODE     ---       #686
      01008D7AH   LINE      CODE     ---       #687
      01008D7FH   LINE      CODE     ---       #688
      01008D7FH   LINE      CODE     ---       #689
      01008D90H   LINE      CODE     ---       #690
      01008D90H   LINE      CODE     ---       #691
      01008D93H   LINE      CODE     ---       #692
      01008D95H   LINE      CODE     ---       #694
      01008D95H   LINE      CODE     ---       #695
      01008D97H   LINE      CODE     ---       #696
      01008D97H   LINE      CODE     ---       #697
      01008D97H   LINE      CODE     ---       #699
LX51 LINKER/LOCATER V4.47a                                                            03/27/2015  10:38:55  PAGE 34


      01008D97H   LINE      CODE     ---       #700
      01008D9DH   LINE      CODE     ---       #701
      01008D9DH   LINE      CODE     ---       #702
      01008DA0H   LINE      CODE     ---       #703
      01008DA0H   LINE      CODE     ---       #704
      01008DA5H   LINE      CODE     ---       #705
      01008DAAH   LINE      CODE     ---       #706
      01008DACH   LINE      CODE     ---       #708
      01008DACH   LINE      CODE     ---       #709
      01008DB0H   LINE      CODE     ---       #710
      01008DB0H   LINE      CODE     ---       #711
      01008DBFH   LINE      CODE     ---       #712
      01008DC1H   LINE      CODE     ---       #714
      01008DC1H   LINE      CODE     ---       #715
      01008DD1H   LINE      CODE     ---       #716
      01008DD1H   LINE      CODE     ---       #719
      01008DDCH   LINE      CODE     ---       #720
      01008DDCH   LINE      CODE     ---       #721
      01008DDFH   LINE      CODE     ---       #722
      01008DE1H   LINE      CODE     ---       #723
      01008DE1H   LINE      CODE     ---       #725
      01008DEAH   LINE      CODE     ---       #726
      01008DEAH   LINE      CODE     ---       #727
      01008DECH   LINE      CODE     ---       #729
      01008DECH   LINE      CODE     ---       #730
      01008DEEH   LINE      CODE     ---       #731
      01008DEEH   LINE      CODE     ---       #732
      01008DEEH   LINE      CODE     ---       #734
      01008DEFH   LINE      CODE     ---       #735
      ---         BLOCKEND  ---      ---       LVL=0

      01009710H   BLOCK     CODE     ---       LVL=0
      00000021H.0 SYMBOL    BIT      BIT       dataStage
      01009710H   LINE      CODE     ---       #737
      01009710H   LINE      CODE     ---       #738
      01009710H   LINE      CODE     ---       #739
      0100972BH   LINE      CODE     ---       #740
      01009731H   LINE      CODE     ---       #742
      0100973BH   LINE      CODE     ---       #743
      0100973BH   LINE      CODE     ---       #744
      0100973BH   LINE      CODE     ---       #745
      01009744H   LINE      CODE     ---       #746
      01009744H   LINE      CODE     ---       #747
      01009744H   LINE      CODE     ---       #748
      0100974BH   LINE      CODE     ---       #749
      0100974BH   LINE      CODE     ---       #751
      0100974BH   LINE      CODE     ---       #752
      01009752H   LINE      CODE     ---       #753
      01009752H   LINE      CODE     ---       #755
      01009752H   LINE      CODE     ---       #756
      01009752H   LINE      CODE     ---       #757
      01009752H   LINE      CODE     ---       #759
      01009752H   LINE      CODE     ---       #760
      01009752H   LINE      CODE     ---       #762
      01009752H   LINE      CODE     ---       #763
      01009752H   LINE      CODE     ---       #764
      01009752H   LINE      CODE     ---       #765
      01009752H   LINE      CODE     ---       #767
      01009752H   LINE      CODE     ---       #768
      01009759H   LINE      CODE     ---       #769
      01009759H   LINE      CODE     ---       #771
      01009759H   LINE      CODE     ---       #772
      01009759H   LINE      CODE     ---       #774
      01009759H   LINE      CODE     ---       #775
      01009759H   LINE      CODE     ---       #776
LX51 LINKER/LOCATER V4.47a                                                            03/27/2015  10:38:55  PAGE 35


      01009759H   LINE      CODE     ---       #778
      0100975AH   LINE      CODE     ---       #779
      ---         BLOCKEND  ---      ---       LVL=0

      01008280H   BLOCK     CODE     ---       LVL=0
      00000021H.0 SYMBOL    BIT      BIT       dataStage
      01008280H   LINE      CODE     ---       #781
      01008280H   LINE      CODE     ---       #782
      01008280H   LINE      CODE     ---       #783
      01008289H   LINE      CODE     ---       #784
      01008289H   LINE      CODE     ---       #785
      0100828BH   LINE      CODE     ---       #786
      0100828BH   LINE      CODE     ---       #787
      01008295H   LINE      CODE     ---       #788
      01008295H   LINE      CODE     ---       #789
      0100829CH   LINE      CODE     ---       #790
      010082A1H   LINE      CODE     ---       #791
      010082A1H   LINE      CODE     ---       #792
      010082A3H   LINE      CODE     ---       #793
      010082A3H   LINE      CODE     ---       #795
      010082A8H   LINE      CODE     ---       #796
      010082A8H   LINE      CODE     ---       #797
      010082ABH   LINE      CODE     ---       #798
      010082ADH   LINE      CODE     ---       #800
      010082ADH   LINE      CODE     ---       #801
      010082B0H   LINE      CODE     ---       #802
      010082B0H   LINE      CODE     ---       #804
      010082B5H   LINE      CODE     ---       #805
      010082B5H   LINE      CODE     ---       #806
      010082BBH   LINE      CODE     ---       #807
      010082CBH   LINE      CODE     ---       #808
      010082CBH   LINE      CODE     ---       #809
      010082CBH   LINE      CODE     ---       #810
      010082D4H   LINE      CODE     ---       #811
      010082DDH   LINE      CODE     ---       #812
      010082E6H   LINE      CODE     ---       #813
      010082E8H   LINE      CODE     ---       #815
      010082E8H   LINE      CODE     ---       #816
      010082EFH   LINE      CODE     ---       #817
      010082F6H   LINE      CODE     ---       #818
      010082F9H   LINE      CODE     ---       #819
      010082FBH   LINE      CODE     ---       #821
      010082FBH   LINE      CODE     ---       #822
      01008302H   LINE      CODE     ---       #823
      01008309H   LINE      CODE     ---       #824
      01008310H   LINE      CODE     ---       #825
      01008312H   LINE      CODE     ---       #827
      01008312H   LINE      CODE     ---       #828
      01008315H   LINE      CODE     ---       #829
      01008318H   LINE      CODE     ---       #830
      0100831AH   LINE      CODE     ---       #831
      0100831CH   LINE      CODE     ---       #833
      0100831CH   LINE      CODE     ---       #834
      0100831EH   LINE      CODE     ---       #835
      0100831EH   LINE      CODE     ---       #836
      0100831EH   LINE      CODE     ---       #837
      01008324H   LINE      CODE     ---       #838
      01008326H   LINE      CODE     ---       #840
      01008326H   LINE      CODE     ---       #841
      0100832CH   LINE      CODE     ---       #842
      0100832CH   LINE      CODE     ---       #843
      0100832FH   LINE      CODE     ---       #844
      0100832FH   LINE      CODE     ---       #845
      01008334H   LINE      CODE     ---       #846
      01008341H   LINE      CODE     ---       #847
LX51 LINKER/LOCATER V4.47a                                                            03/27/2015  10:38:55  PAGE 36


      01008343H   LINE      CODE     ---       #849
      01008343H   LINE      CODE     ---       #850
      0100834BH   LINE      CODE     ---       #851
      0100835AH   LINE      CODE     ---       #852
      0100835AH   LINE      CODE     ---       #853
      0100835CH   LINE      CODE     ---       #855
      0100835CH   LINE      CODE     ---       #856
      0100835EH   LINE      CODE     ---       #857
      0100835EH   LINE      CODE     ---       #858
      0100835EH   LINE      CODE     ---       #859
      0100835EH   LINE      CODE     ---       #861
      0100835FH   LINE      CODE     ---       #862
      ---         BLOCKEND  ---      ---       LVL=0

      010092E5H   BLOCK     CODE     ---       LVL=0
      010092E5H   LINE      CODE     ---       #864
      010092E5H   LINE      CODE     ---       #865
      010092E5H   LINE      CODE     ---       #866
      010092E8H   LINE      CODE     ---       #868
      010092F0H   LINE      CODE     ---       #869
      010092F3H   LINE      CODE     ---       #870
      010092F3H   LINE      CODE     ---       #871
      010092F5H   LINE      CODE     ---       #872
      010092F5H   LINE      CODE     ---       #874
      01009301H   LINE      CODE     ---       #875
      01009301H   LINE      CODE     ---       #876
      01009302H   LINE      CODE     ---       #877
      01009302H   LINE      CODE     ---       #879
      0100930CH   LINE      CODE     ---       #880
      0100930FH   LINE      CODE     ---       #881
      0100930FH   LINE      CODE     ---       #882
      01009316H   LINE      CODE     ---       #883
      01009316H   LINE      CODE     ---       #884
      01009317H   LINE      CODE     ---       #885
      01009317H   LINE      CODE     ---       #886
      01009319H   LINE      CODE     ---       #888
      01009319H   LINE      CODE     ---       #889
      0100931CH   LINE      CODE     ---       #890
      01009323H   LINE      CODE     ---       #891
      01009323H   LINE      CODE     ---       #892
      01009325H   LINE      CODE     ---       #894
      01009325H   LINE      CODE     ---       #895
      0100932CH   LINE      CODE     ---       #896
      0100932CH   LINE      CODE     ---       #897
      0100932DH   LINE      CODE     ---       #898
      0100932DH   LINE      CODE     ---       #899
      0100932FH   LINE      CODE     ---       #901
      0100932FH   LINE      CODE     ---       #902
      01009332H   LINE      CODE     ---       #903
      01009339H   LINE      CODE     ---       #904
      01009339H   LINE      CODE     ---       #905
      01009339H   LINE      CODE     ---       #907
      0100933EH   LINE      CODE     ---       #909
      0100933FH   LINE      CODE     ---       #910
      ---         BLOCKEND  ---      ---       LVL=0

      ---         MODULE    ---      ---       INT
      00000061H   PUBLIC    DATA     BYTE      i_bTemp
      00000060H   PUBLIC    DATA     BYTE      i_timercount
      0100800CH   PUBLIC    CODE     ---       UART_ISR
      01008009H   PUBLIC    CODE     ---       TIMER1_ISR
      01008006H   PUBLIC    CODE     ---       INT1_ISR
      01008003H   PUBLIC    CODE     ---       TIMER0_ISR
      01008000H   PUBLIC    CODE     ---       INT0_ISR
      0100A010H   PUBLIC    CODE     ---       HandleUartIsr
LX51 LINKER/LOCATER V4.47a                                                            03/27/2015  10:38:55  PAGE 37


      01009FD0H   PUBLIC    CODE     ---       HandleTimer1Isr
      01009C0CH   PUBLIC    CODE     ---       HandleInt1Isr
      0100851EH   PUBLIC    CODE     ---       HandleTimer0Isr
      0100A00FH   PUBLIC    CODE     ---       HandleInt0Isr
      00000080H   SFRSYM    DATA     BYTE      P0
      00000090H   SFRSYM    DATA     BYTE      P1
      000000A0H   SFRSYM    DATA     BYTE      P2
      000000B0H   SFRSYM    DATA     BYTE      P3
      000000D0H.6 SFRSYM    DATA     BIT       AC
      000000A8H.7 SFRSYM    DATA     BIT       EA
      000000A8H   SFRSYM    DATA     BYTE      IE
      000000D0H.1 SFRSYM    DATA     BIT       FL
      000000B8H   SFRSYM    DATA     BYTE      IP
      00000098H   SFRSYM    DATA     BIT       RI
      000000D0H.7 SFRSYM    DATA     BIT       CY
      00000098H.1 SFRSYM    DATA     BIT       TI
      00000080H.7 SFRSYM    DATA     BIT       IDLE
      00000081H   SFRSYM    DATA     BYTE      SP
      000000D0H.2 SFRSYM    DATA     BIT       OV
      000000FBH   SFRSYM    DATA     BYTE      PIDH
      000000FAH   SFRSYM    DATA     BYTE      PIDL
      000000F9H   SFRSYM    DATA     BYTE      VIDH
      00000088H.1 SFRSYM    DATA     BIT       M00
      00000088H.5 SFRSYM    DATA     BIT       M01
      00000088H.2 SFRSYM    DATA     BIT       M10
      00000088H.6 SFRSYM    DATA     BIT       M11
      000000F8H   SFRSYM    DATA     BYTE      VIDL
      000000BAH   SFRSYM    DATA     BYTE      S0RELH
      00000099H   SFRSYM    DATA     BYTE      SBUF
      00000087H   SFRSYM    DATA     BYTE      PCON
      000000AAH   SFRSYM    DATA     BYTE      S0RELL
      00000098H   SFRSYM    DATA     BYTE      SCON
      00000089H   SFRSYM    DATA     BYTE      TMOD
      00000088H   SFRSYM    DATA     BYTE      TCON
      00000088H.1 SFRSYM    DATA     BIT       GF0
      00000088H.1 SFRSYM    DATA     BIT       IE0
      00000088H.2 SFRSYM    DATA     BIT       GF1
      00000088H.3 SFRSYM    DATA     BIT       IE1
      000000F0H   SFRSYM    DATA     BYTE      B
      000000E0H   SFRSYM    DATA     BYTE      ACC
      00000088H.3 SFRSYM    DATA     BIT       CT0
      00000088H   SFRSYM    DATA     BIT       STOP
      000000A8H.4 SFRSYM    DATA     BIT       ES0
      00000088H.7 SFRSYM    DATA     BIT       CT1
      000000A8H.6 SFRSYM    DATA     BIT       ES1
      000000A8H.1 SFRSYM    DATA     BIT       ET0
      000000A8H.3 SFRSYM    DATA     BIT       ET1
      00000088H.5 SFRSYM    DATA     BIT       TF0
      000000A8H.5 SFRSYM    DATA     BIT       ET2
      00000088H.7 SFRSYM    DATA     BIT       TF1
      00000098H.2 SFRSYM    DATA     BIT       RB8
      0000008CH   SFRSYM    DATA     BYTE      TH0
      000000A8H   SFRSYM    DATA     BIT       EX0
      0000008DH   SFRSYM    DATA     BYTE      TH1
      00000088H   SFRSYM    DATA     BIT       IT0
      000000A8H.2 SFRSYM    DATA     BIT       EX1
      00000098H.3 SFRSYM    DATA     BIT       TB8
      00000088H.2 SFRSYM    DATA     BIT       IT1
      000000D0H   SFRSYM    DATA     BIT       P
      00000098H.7 SFRSYM    DATA     BIT       SM0
      0000008AH   SFRSYM    DATA     BYTE      TL0
      00000098H.6 SFRSYM    DATA     BIT       SM1
      0000008BH   SFRSYM    DATA     BYTE      TL1
      00000098H.5 SFRSYM    DATA     BIT       SM2
      00000088H.4 SFRSYM    DATA     BIT       GATE0
LX51 LINKER/LOCATER V4.47a                                                            03/27/2015  10:38:55  PAGE 38


      000000B8H.4 SFRSYM    DATA     BIT       PS0
      00000090H   SFRSYM    DATA     BIT       GATE1
      000000B8H.6 SFRSYM    DATA     BIT       PS1
      000000B8H.1 SFRSYM    DATA     BIT       PT0
      00000086H   SFRSYM    DATA     BYTE      WDTREL
      000000D0H.3 SFRSYM    DATA     BIT       RS0
      000000B8H.3 SFRSYM    DATA     BIT       PT1
      000000D0H.4 SFRSYM    DATA     BIT       RS1
      000000B8H.5 SFRSYM    DATA     BIT       PT2
      00000088H.4 SFRSYM    DATA     BIT       TR0
      00000088H.6 SFRSYM    DATA     BIT       TR1
      000000B8H   SFRSYM    DATA     BIT       PX0
      000000B8H.2 SFRSYM    DATA     BIT       PX1
      00000083H   SFRSYM    DATA     BYTE      DPH
      00000082H   SFRSYM    DATA     BYTE      DPL
      00000088H.6 SFRSYM    DATA     BIT       SMOD0
      00000098H.4 SFRSYM    DATA     BIT       REN
      000000D8H   SFRSYM    DATA     BYTE      ADCON
      000000FDH   SFRSYM    DATA     BYTE      EXCAH
      000000FCH   SFRSYM    DATA     BYTE      EXCAL
      0000008EH   SFRSYM    DATA     BYTE      CKCON
      000000FFH   SFRSYM    DATA     BYTE      EXCLH
      000000D0H.5 SFRSYM    DATA     BIT       F0
      000000FEH   SFRSYM    DATA     BYTE      EXCLL
      000000D0H   SFRSYM    DATA     BYTE      PSW
      01009E62H   SYMBOL    CODE     ---       _intSpiWrite
      01009D7AH   SYMBOL    CODE     ---       _intSpiRead

      01009E19H   BLOCK     CODE     ---       LVL=0
      ---         BLOCKEND  ---      ---       LVL=0

      01009D7AH   BLOCK     CODE     ---       LVL=0
      00000007H   SYMBOL    DATA     BYTE      reg
      01009D7AH   LINE      CODE     ---       #33
      01009D7AH   LINE      CODE     ---       #34
      01009D7AH   LINE      CODE     ---       #35
      01009D81H   LINE      CODE     ---       #36
      01009D88H   LINE      CODE     ---       #37
      01009D8FH   LINE      CODE     ---       #39
      01009D94H   LINE      CODE     ---       #40
      ---         BLOCKEND  ---      ---       LVL=0

      01009E62H   BLOCK     CODE     ---       LVL=0
      00000007H   SYMBOL    DATA     BYTE      reg
      00000005H   SYMBOL    DATA     BYTE      temp
      01009E62H   LINE      CODE     ---       #42
      01009E62H   LINE      CODE     ---       #43
      01009E62H   LINE      CODE     ---       #44
      01009E67H   LINE      CODE     ---       #45
      01009E6AH   LINE      CODE     ---       #46
      01009E71H   LINE      CODE     ---       #47
      01009E78H   LINE      CODE     ---       #49
      ---         BLOCKEND  ---      ---       LVL=0

      0100A00FH   BLOCK     CODE     ---       LVL=0
      0100A00FH   LINE      CODE     ---       #51
      0100A00FH   LINE      CODE     ---       #53
      ---         BLOCKEND  ---      ---       LVL=0

      0100851EH   BLOCK     CODE     ---       LVL=0
      0100851EH   LINE      CODE     ---       #55
      01008523H   LINE      CODE     ---       #57
      01008525H   LINE      CODE     ---       #59
      01008549H   LINE      CODE     ---       #60
      01008549H   LINE      CODE     ---       #61
LX51 LINKER/LOCATER V4.47a                                                            03/27/2015  10:38:55  PAGE 39


      0100854BH   LINE      CODE     ---       #62
      0100854DH   LINE      CODE     ---       #65
      01008554H   LINE      CODE     ---       #66
      01008567H   LINE      CODE     ---       #67
      0100857AH   LINE      CODE     ---       #68
      01008581H   LINE      CODE     ---       #69
      01008583H   LINE      CODE     ---       #70
      0100859CH   LINE      CODE     ---       #71
      0100859CH   LINE      CODE     ---       #72
      0100859EH   LINE      CODE     ---       #73
      010085A0H   LINE      CODE     ---       #75
      010085A7H   LINE      CODE     ---       #76
      010085AAH   LINE      CODE     ---       #77
      010085ACH   LINE      CODE     ---       #78
      010085C5H   LINE      CODE     ---       #79
      010085C5H   LINE      CODE     ---       #80
      010085C7H   LINE      CODE     ---       #83
      010085D1H   LINE      CODE     ---       #84
      010085D7H   LINE      CODE     ---       #86
      010085DCH   LINE      CODE     ---       #88
      010085E3H   LINE      CODE     ---       #90
      010085EAH   LINE      CODE     ---       #92
      010085EBH   LINE      CODE     ---       #93
      010085ECH   LINE      CODE     ---       #94
      010085EDH   LINE      CODE     ---       #95
      010085EEH   LINE      CODE     ---       #97
      010085F2H   LINE      CODE     ---       #98
      010085F9H   LINE      CODE     ---       #99
      010085F9H   LINE      CODE     ---       #100
      ---         BLOCKEND  ---      ---       LVL=0

      01009C0CH   BLOCK     CODE     ---       LVL=0
      01009C0CH   LINE      CODE     ---       #102
      01009C11H   LINE      CODE     ---       #105
      01009C18H   LINE      CODE     ---       #106
      01009C18H   LINE      CODE     ---       #107
      01009C1AH   LINE      CODE     ---       #108
      01009C2AH   LINE      CODE     ---       #109
      01009C30H   LINE      CODE     ---       #110
      01009C30H   LINE      CODE     ---       #111
      ---         BLOCKEND  ---      ---       LVL=0

      01009FD0H   BLOCK     CODE     ---       LVL=0
      01009FD0H   LINE      CODE     ---       #113
      01009FD5H   LINE      CODE     ---       #115
      01009FD8H   LINE      CODE     ---       #116
      01009FDAH   LINE      CODE     ---       #117
      ---         BLOCKEND  ---      ---       LVL=0

      0100A010H   BLOCK     CODE     ---       LVL=0
      0100A010H   LINE      CODE     ---       #119
      0100A010H   LINE      CODE     ---       #121
      ---         BLOCKEND  ---      ---       LVL=0

      01008000H   BLOCK     CODE     ---       LVL=0
      01008000H   LINE      CODE     ---       #123
      01008000H   LINE      CODE     ---       #124
      01008000H   LINE      CODE     ---       #125
      ---         BLOCKEND  ---      ---       LVL=0

      01008003H   BLOCK     CODE     ---       LVL=0
      01008003H   LINE      CODE     ---       #128
      01008003H   LINE      CODE     ---       #129
      01008003H   LINE      CODE     ---       #130
      ---         BLOCKEND  ---      ---       LVL=0
LX51 LINKER/LOCATER V4.47a                                                            03/27/2015  10:38:55  PAGE 40



      01008006H   BLOCK     CODE     ---       LVL=0
      01008006H   LINE      CODE     ---       #133
      01008006H   LINE      CODE     ---       #134
      01008006H   LINE      CODE     ---       #135
      ---         BLOCKEND  ---      ---       LVL=0

      01008009H   BLOCK     CODE     ---       LVL=0
      01008009H   LINE      CODE     ---       #138
      01008009H   LINE      CODE     ---       #139
      01008009H   LINE      CODE     ---       #140
      ---         BLOCKEND  ---      ---       LVL=0

      0100800CH   BLOCK     CODE     ---       LVL=0
      0100800CH   LINE      CODE     ---       #143
      0100800CH   LINE      CODE     ---       #144
      0100800CH   LINE      CODE     ---       #145
      ---         BLOCKEND  ---      ---       LVL=0

      ---         MODULE    ---      ---       IO
      01009E32H   PUBLIC    CODE     ---       PeriIntInit
      00000080H   SFRSYM    DATA     BYTE      P0
      00000090H   SFRSYM    DATA     BYTE      P1
      000000A0H   SFRSYM    DATA     BYTE      P2
      000000B0H   SFRSYM    DATA     BYTE      P3
      000000D0H.6 SFRSYM    DATA     BIT       AC
      000000A8H.7 SFRSYM    DATA     BIT       EA
      000000A8H   SFRSYM    DATA     BYTE      IE
      000000D0H.1 SFRSYM    DATA     BIT       FL
      000000B8H   SFRSYM    DATA     BYTE      IP
      00000098H   SFRSYM    DATA     BIT       RI
      000000D0H.7 SFRSYM    DATA     BIT       CY
      00000098H.1 SFRSYM    DATA     BIT       TI
      00000080H.7 SFRSYM    DATA     BIT       IDLE
      00000081H   SFRSYM    DATA     BYTE      SP
      000000D0H.2 SFRSYM    DATA     BIT       OV
      000000FBH   SFRSYM    DATA     BYTE      PIDH
      000000FAH   SFRSYM    DATA     BYTE      PIDL
      000000F9H   SFRSYM    DATA     BYTE      VIDH
      00000088H.1 SFRSYM    DATA     BIT       M00
      00000088H.5 SFRSYM    DATA     BIT       M01
      00000088H.2 SFRSYM    DATA     BIT       M10
      00000088H.6 SFRSYM    DATA     BIT       M11
      000000F8H   SFRSYM    DATA     BYTE      VIDL
      000000BAH   SFRSYM    DATA     BYTE      S0RELH
      00000099H   SFRSYM    DATA     BYTE      SBUF
      00000087H   SFRSYM    DATA     BYTE      PCON
      000000AAH   SFRSYM    DATA     BYTE      S0RELL
      00000098H   SFRSYM    DATA     BYTE      SCON
      00000089H   SFRSYM    DATA     BYTE      TMOD
      00000088H   SFRSYM    DATA     BYTE      TCON
      00000088H.1 SFRSYM    DATA     BIT       GF0
      00000088H.1 SFRSYM    DATA     BIT       IE0
      00000088H.2 SFRSYM    DATA     BIT       GF1
      00000088H.3 SFRSYM    DATA     BIT       IE1
      000000F0H   SFRSYM    DATA     BYTE      B
      000000E0H   SFRSYM    DATA     BYTE      ACC
      00000088H.3 SFRSYM    DATA     BIT       CT0
      00000088H   SFRSYM    DATA     BIT       STOP
      000000A8H.4 SFRSYM    DATA     BIT       ES0
      00000088H.7 SFRSYM    DATA     BIT       CT1
      000000A8H.6 SFRSYM    DATA     BIT       ES1
      000000A8H.1 SFRSYM    DATA     BIT       ET0
      000000A8H.3 SFRSYM    DATA     BIT       ET1
      00000088H.5 SFRSYM    DATA     BIT       TF0
LX51 LINKER/LOCATER V4.47a                                                            03/27/2015  10:38:55  PAGE 41


      000000A8H.5 SFRSYM    DATA     BIT       ET2
      00000088H.7 SFRSYM    DATA     BIT       TF1
      00000098H.2 SFRSYM    DATA     BIT       RB8
      0000008CH   SFRSYM    DATA     BYTE      TH0
      000000A8H   SFRSYM    DATA     BIT       EX0
      0000008DH   SFRSYM    DATA     BYTE      TH1
      00000088H   SFRSYM    DATA     BIT       IT0
      000000A8H.2 SFRSYM    DATA     BIT       EX1
      00000098H.3 SFRSYM    DATA     BIT       TB8
      00000088H.2 SFRSYM    DATA     BIT       IT1
      000000D0H   SFRSYM    DATA     BIT       P
      00000098H.7 SFRSYM    DATA     BIT       SM0
      0000008AH   SFRSYM    DATA     BYTE      TL0
      00000098H.6 SFRSYM    DATA     BIT       SM1
      0000008BH   SFRSYM    DATA     BYTE      TL1
      00000098H.5 SFRSYM    DATA     BIT       SM2
      00000088H.4 SFRSYM    DATA     BIT       GATE0
      000000B8H.4 SFRSYM    DATA     BIT       PS0
      00000090H   SFRSYM    DATA     BIT       GATE1
      000000B8H.6 SFRSYM    DATA     BIT       PS1
      000000B8H.1 SFRSYM    DATA     BIT       PT0
      00000086H   SFRSYM    DATA     BYTE      WDTREL
      000000D0H.3 SFRSYM    DATA     BIT       RS0
      000000B8H.3 SFRSYM    DATA     BIT       PT1
      000000D0H.4 SFRSYM    DATA     BIT       RS1
      000000B8H.5 SFRSYM    DATA     BIT       PT2
      00000088H.4 SFRSYM    DATA     BIT       TR0
      00000088H.6 SFRSYM    DATA     BIT       TR1
      000000B8H   SFRSYM    DATA     BIT       PX0
      000000B8H.2 SFRSYM    DATA     BIT       PX1
      00000083H   SFRSYM    DATA     BYTE      DPH
      00000082H   SFRSYM    DATA     BYTE      DPL
      00000088H.6 SFRSYM    DATA     BIT       SMOD0
      00000098H.4 SFRSYM    DATA     BIT       REN
      000000D8H   SFRSYM    DATA     BYTE      ADCON
      000000FDH   SFRSYM    DATA     BYTE      EXCAH
      000000FCH   SFRSYM    DATA     BYTE      EXCAL
      0000008EH   SFRSYM    DATA     BYTE      CKCON
      000000FFH   SFRSYM    DATA     BYTE      EXCLH
      000000D0H.5 SFRSYM    DATA     BIT       F0
      000000FEH   SFRSYM    DATA     BYTE      EXCLL
      000000D0H   SFRSYM    DATA     BYTE      PSW

      01009E32H   BLOCK     CODE     ---       LVL=0
      01009E32H   LINE      CODE     ---       #19
      01009E32H   LINE      CODE     ---       #20
      01009E32H   LINE      CODE     ---       #22
      01009E38H   LINE      CODE     ---       #23
      01009E3EH   LINE      CODE     ---       #33
      01009E44H   LINE      CODE     ---       #34
      01009E49H   LINE      CODE     ---       #43
      ---         BLOCKEND  ---      ---       LVL=0

      ---         MODULE    ---      ---       MAIN
      00000052H   PUBLIC    DATA     BYTE      g_bTimer1Count
      00000050H   PUBLIC    DATA     ---       g_pHidReportDscr
      0000004EH   PUBLIC    DATA     ---       g_pHidDscr
      0000004CH   PUBLIC    DATA     WORD      g_wGpiData
      0000004BH   PUBLIC    DATA     BYTE      g_bIndex2
      00000049H   PUBLIC    DATA     WORD      g_wTemp
      00000067H   PUBLIC    DATA     BYTE      g_bExtIntEnable
      00000020H.5 PUBLIC    BIT      BIT       g_bmAdcHPSEn
      00000048H   PUBLIC    DATA     BYTE      g_bTemp
      000000A6H   PUBLIC    IDATA    BYTE      g_bRecordMuteGpio
      00000020H.4 PUBLIC    BIT      BIT       g_bmUsbResume
LX51 LINKER/LOCATER V4.47a                                                            03/27/2015  10:38:55  PAGE 42


      00000020H.3 PUBLIC    BIT      BIT       g_bmSelfPower
      00000020H.2 PUBLIC    BIT      BIT       g_bmRemoteWakeupEn
      00000046H   PUBLIC    DATA     ---       g_pProductStringDscr
      00000020H.1 PUBLIC    BIT      BIT       g_bmGpiRequest
      00000045H   PUBLIC    DATA     BYTE      g_bIndex
      00000043H   PUBLIC    DATA     ---       g_pbXdataStart
      00000041H   PUBLIC    DATA     WORD      g_wTempA
      0000003FH   PUBLIC    DATA     ---       g_pAudioControl
      0000003DH   PUBLIC    DATA     WORD      g_wGpioIntMask
      0000003CH   PUBLIC    DATA     BYTE      g_bConfiguration
      0000003AH   PUBLIC    DATA     ---       g_pControlTable
      00000039H   PUBLIC    DATA     BYTE      g_bTempB
      00000029H   PUBLIC    DATA     ---       g_bDataBuffer
      00000028H   PUBLIC    DATA     BYTE      g_bTempA
      00000026H   PUBLIC    DATA     ---       g_pbConfigDscr
      00000024H   PUBLIC    DATA     WORD      g_wGpioDirMask
      00000020H.0 PUBLIC    BIT      BIT       g_bmSpdifOutEn
      00000022H   PUBLIC    DATA     WORD      g_wOldGpiData
      01008012H   PUBLIC    CODE     ---       main
      01009542H   PUBLIC    CODE     ---       HandleUsbResume
      010098E2H   PUBLIC    CODE     ---       HandleUsbSuspend
      01009289H   PUBLIC    CODE     ---       HandleUsbReset
      0100962CH   PUBLIC    CODE     ---       volumeReset
      010095E0H   PUBLIC    CODE     ---       CodecReset
      01009D23H   PUBLIC    CODE     ---       usbEpReset
      01009EE8H   PUBLIC    CODE     ---       AnaCodecPowerReset
      01009CC1H   PUBLIC    CODE     ---       PowerOnReset
      010098A7H   PUBLIC    CODE     ---       variablesInit
      0100A009H   PUBLIC    CODE     ---       OriginIr
      0100892FH   PUBLIC    CODE     ---       OriginGpi
      0100A012H   PUBLIC    CODE     ---       OriginEvent
      0100A004H   PUBLIC    CODE     ---       OriginConfig
      0100A011H   PUBLIC    CODE     ---       OriginReset
      010097E5H   PUBLIC    CODE     ---       OriginInitialize
      01009D95H   PUBLIC    CODE     ---       PeriClkReset
      01009EA7H   PUBLIC    CODE     ---       _HandlePeriHidReport
      010091CAH   PUBLIC    CODE     ---       InputReportDataReady
      01009F48H   PUBLIC    CODE     ---       Timer1Config
      00000080H   SFRSYM    DATA     BYTE      P0
      00000090H   SFRSYM    DATA     BYTE      P1
      000000A0H   SFRSYM    DATA     BYTE      P2
      000000B0H   SFRSYM    DATA     BYTE      P3
      000000D0H.6 SFRSYM    DATA     BIT       AC
      000000A8H.7 SFRSYM    DATA     BIT       EA
      000000A8H   SFRSYM    DATA     BYTE      IE
      000000D0H.1 SFRSYM    DATA     BIT       FL
      000000B8H   SFRSYM    DATA     BYTE      IP
      00000098H   SFRSYM    DATA     BIT       RI
      000000D0H.7 SFRSYM    DATA     BIT       CY
      00000098H.1 SFRSYM    DATA     BIT       TI
      00000080H.7 SFRSYM    DATA     BIT       IDLE
      00000081H   SFRSYM    DATA     BYTE      SP
      000000D0H.2 SFRSYM    DATA     BIT       OV
      000000FBH   SFRSYM    DATA     BYTE      PIDH
      000000FAH   SFRSYM    DATA     BYTE      PIDL
      000000F9H   SFRSYM    DATA     BYTE      VIDH
      00000088H.1 SFRSYM    DATA     BIT       M00
      00000088H.5 SFRSYM    DATA     BIT       M01
      00000088H.2 SFRSYM    DATA     BIT       M10
      00000088H.6 SFRSYM    DATA     BIT       M11
      000000F8H   SFRSYM    DATA     BYTE      VIDL
      000000BAH   SFRSYM    DATA     BYTE      S0RELH
      00000099H   SFRSYM    DATA     BYTE      SBUF
      00000087H   SFRSYM    DATA     BYTE      PCON
      000000AAH   SFRSYM    DATA     BYTE      S0RELL
LX51 LINKER/LOCATER V4.47a                                                            03/27/2015  10:38:55  PAGE 43


      00000098H   SFRSYM    DATA     BYTE      SCON
      00000089H   SFRSYM    DATA     BYTE      TMOD
      00000088H   SFRSYM    DATA     BYTE      TCON
      00000088H.1 SFRSYM    DATA     BIT       GF0
      00000088H.1 SFRSYM    DATA     BIT       IE0
      00000088H.2 SFRSYM    DATA     BIT       GF1
      00000088H.3 SFRSYM    DATA     BIT       IE1
      000000F0H   SFRSYM    DATA     BYTE      B
      000000E0H   SFRSYM    DATA     BYTE      ACC
      00000088H.3 SFRSYM    DATA     BIT       CT0
      00000088H   SFRSYM    DATA     BIT       STOP
      000000A8H.4 SFRSYM    DATA     BIT       ES0
      00000088H.7 SFRSYM    DATA     BIT       CT1
      000000A8H.6 SFRSYM    DATA     BIT       ES1
      000000A8H.1 SFRSYM    DATA     BIT       ET0
      000000A8H.3 SFRSYM    DATA     BIT       ET1
      00000088H.5 SFRSYM    DATA     BIT       TF0
      000000A8H.5 SFRSYM    DATA     BIT       ET2
      00000088H.7 SFRSYM    DATA     BIT       TF1
      00000098H.2 SFRSYM    DATA     BIT       RB8
      0000008CH   SFRSYM    DATA     BYTE      TH0
      000000A8H   SFRSYM    DATA     BIT       EX0
      0000008DH   SFRSYM    DATA     BYTE      TH1
      00000088H   SFRSYM    DATA     BIT       IT0
      000000A8H.2 SFRSYM    DATA     BIT       EX1
      00000098H.3 SFRSYM    DATA     BIT       TB8
      00000088H.2 SFRSYM    DATA     BIT       IT1
      000000D0H   SFRSYM    DATA     BIT       P
      00000098H.7 SFRSYM    DATA     BIT       SM0
      0000008AH   SFRSYM    DATA     BYTE      TL0
      00000098H.6 SFRSYM    DATA     BIT       SM1
      0000008BH   SFRSYM    DATA     BYTE      TL1
      00000098H.5 SFRSYM    DATA     BIT       SM2
      00000088H.4 SFRSYM    DATA     BIT       GATE0
      000000B8H.4 SFRSYM    DATA     BIT       PS0
      00000090H   SFRSYM    DATA     BIT       GATE1
      000000B8H.6 SFRSYM    DATA     BIT       PS1
      000000B8H.1 SFRSYM    DATA     BIT       PT0
      00000086H   SFRSYM    DATA     BYTE      WDTREL
      000000D0H.3 SFRSYM    DATA     BIT       RS0
      000000B8H.3 SFRSYM    DATA     BIT       PT1
      000000D0H.4 SFRSYM    DATA     BIT       RS1
      000000B8H.5 SFRSYM    DATA     BIT       PT2
      00000088H.4 SFRSYM    DATA     BIT       TR0
      00000088H.6 SFRSYM    DATA     BIT       TR1
      000000B8H   SFRSYM    DATA     BIT       PX0
      000000B8H.2 SFRSYM    DATA     BIT       PX1
      00000083H   SFRSYM    DATA     BYTE      DPH
      00000082H   SFRSYM    DATA     BYTE      DPL
      00000088H.6 SFRSYM    DATA     BIT       SMOD0
      00000098H.4 SFRSYM    DATA     BIT       REN
      000000D8H   SFRSYM    DATA     BYTE      ADCON
      000000FDH   SFRSYM    DATA     BYTE      EXCAH
      000000FCH   SFRSYM    DATA     BYTE      EXCAL
      0000008EH   SFRSYM    DATA     BYTE      CKCON
      000000FFH   SFRSYM    DATA     BYTE      EXCLH
      000000D0H.5 SFRSYM    DATA     BIT       F0
      000000FEH   SFRSYM    DATA     BYTE      EXCLL
      000000D0H   SFRSYM    DATA     BYTE      PSW

      01009AECH   BLOCK     CODE     ---       LVL=0
      ---         BLOCKEND  ---      ---       LVL=0

      01009F48H   BLOCK     CODE     ---       LVL=0
      01009F48H   LINE      CODE     ---       #107
LX51 LINKER/LOCATER V4.47a                                                            03/27/2015  10:38:55  PAGE 44


      01009F48H   LINE      CODE     ---       #108
      01009F48H   LINE      CODE     ---       #110
      01009F4EH   LINE      CODE     ---       #111
      01009F52H   LINE      CODE     ---       #112
      01009F55H   LINE      CODE     ---       #114
      01009F57H   LINE      CODE     ---       #115
      ---         BLOCKEND  ---      ---       LVL=0

      010091CAH   BLOCK     CODE     ---       LVL=0
      010091CAH   LINE      CODE     ---       #117
      010091CAH   LINE      CODE     ---       #118
      010091CAH   LINE      CODE     ---       #119
      010091CEH   LINE      CODE     ---       #121
      010091D1H   LINE      CODE     ---       #122
      010091DFH   LINE      CODE     ---       #124
      010091EEH   LINE      CODE     ---       #125
      010091F5H   LINE      CODE     ---       #126
      010091FBH   LINE      CODE     ---       #127
      01009211H   LINE      CODE     ---       #128
      01009211H   LINE      CODE     ---       #129
      01009225H   LINE      CODE     ---       #130
      01009229H   LINE      CODE     ---       #131
      ---         BLOCKEND  ---      ---       LVL=0

      01009EA7H   BLOCK     CODE     ---       LVL=0
      00000054H   SYMBOL    DATA     BYTE      peri_type
      01009EA7H   LINE      CODE     ---       #133
      01009EA9H   LINE      CODE     ---       #134
      01009EA9H   LINE      CODE     ---       #135
      01009EACH   LINE      CODE     ---       #136
      01009EB2H   LINE      CODE     ---       #137
      01009EB5H   LINE      CODE     ---       #138
      01009EBCH   LINE      CODE     ---       #139
      ---         BLOCKEND  ---      ---       LVL=0

      01009D95H   BLOCK     CODE     ---       LVL=0
      01009D95H   LINE      CODE     ---       #141
      01009D95H   LINE      CODE     ---       #142
      01009D95H   LINE      CODE     ---       #144
      01009D9CH   LINE      CODE     ---       #146
      01009D9FH   LINE      CODE     ---       #147
      01009DA3H   LINE      CODE     ---       #150
      01009DAAH   LINE      CODE     ---       #152
      01009DAFH   LINE      CODE     ---       #153
      ---         BLOCKEND  ---      ---       LVL=0

      010097E5H   BLOCK     CODE     ---       LVL=0
      010097E5H   LINE      CODE     ---       #155
      010097E5H   LINE      CODE     ---       #156
      010097E5H   LINE      CODE     ---       #157
      010097EBH   LINE      CODE     ---       #158
      010097F1H   LINE      CODE     ---       #159
      01009800H   LINE      CODE     ---       #160
      01009808H   LINE      CODE     ---       #161
      0100980CH   LINE      CODE     ---       #163
      01009815H   LINE      CODE     ---       #164
      0100981AH   LINE      CODE     ---       #170
      0100981DH   LINE      CODE     ---       #171
      01009820H   LINE      CODE     ---       #173
      01009823H   LINE      CODE     ---       #176
      ---         BLOCKEND  ---      ---       LVL=0

      0100A011H   BLOCK     CODE     ---       LVL=0
      0100A011H   LINE      CODE     ---       #179
      0100A011H   LINE      CODE     ---       #180
LX51 LINKER/LOCATER V4.47a                                                            03/27/2015  10:38:55  PAGE 45


      0100A011H   LINE      CODE     ---       #181
      ---         BLOCKEND  ---      ---       LVL=0

      0100A004H   BLOCK     CODE     ---       LVL=0
      0100A004H   LINE      CODE     ---       #183
      0100A004H   LINE      CODE     ---       #184
      0100A004H   LINE      CODE     ---       #185
      ---         BLOCKEND  ---      ---       LVL=0

      0100A012H   BLOCK     CODE     ---       LVL=0
      0100A012H   LINE      CODE     ---       #188
      0100A012H   LINE      CODE     ---       #189
      0100A012H   LINE      CODE     ---       #190
      ---         BLOCKEND  ---      ---       LVL=0

      0100892FH   BLOCK     CODE     ---       LVL=0
      0100892FH   LINE      CODE     ---       #192
      0100892FH   LINE      CODE     ---       #193
      0100892FH   LINE      CODE     ---       #194
      01008943H   LINE      CODE     ---       #195
      01008946H   LINE      CODE     ---       #196
      01008946H   LINE      CODE     ---       #197
      0100895AH   LINE      CODE     ---       #198
      01008966H   LINE      CODE     ---       #199
      01008966H   LINE      CODE     ---       #200
      01008972H   LINE      CODE     ---       #201
      01008972H   LINE      CODE     ---       #202
      0100897AH   LINE      CODE     ---       #204
      01008981H   LINE      CODE     ---       #205
      01008981H   LINE      CODE     ---       #206
      01008988H   LINE      CODE     ---       #207
      0100898AH   LINE      CODE     ---       #209
      0100898AH   LINE      CODE     ---       #210
      01008991H   LINE      CODE     ---       #211
      01008991H   LINE      CODE     ---       #212
      01008993H   LINE      CODE     ---       #214
      01008993H   LINE      CODE     ---       #215
      010089A1H   LINE      CODE     ---       #217
      010089A8H   LINE      CODE     ---       #218
      010089A8H   LINE      CODE     ---       #219
      010089AEH   LINE      CODE     ---       #220
      010089B0H   LINE      CODE     ---       #222
      010089B0H   LINE      CODE     ---       #223
      010089B6H   LINE      CODE     ---       #224
      010089B6H   LINE      CODE     ---       #226
      010089BDH   LINE      CODE     ---       #227
      010089BDH   LINE      CODE     ---       #228
      010089CBH   LINE      CODE     ---       #229
      010089CBH   LINE      CODE     ---       #230
      010089CBH   LINE      CODE     ---       #233
      010089D0H   LINE      CODE     ---       #235
      010089D2H   LINE      CODE     ---       #236
      010089D2H   LINE      CODE     ---       #237
      010089DEH   LINE      CODE     ---       #239
      010089E3H   LINE      CODE     ---       #240
      010089E3H   LINE      CODE     ---       #241
      010089E5H   LINE      CODE     ---       #242
      010089E5H   LINE      CODE     ---       #243
      ---         BLOCKEND  ---      ---       LVL=0

      0100A009H   BLOCK     CODE     ---       LVL=0
      0100A009H   LINE      CODE     ---       #245
      0100A009H   LINE      CODE     ---       #246
      0100A009H   LINE      CODE     ---       #247
      ---         BLOCKEND  ---      ---       LVL=0
LX51 LINKER/LOCATER V4.47a                                                            03/27/2015  10:38:55  PAGE 46



      010098A7H   BLOCK     CODE     ---       LVL=0
      010098A7H   LINE      CODE     ---       #250
      010098A7H   LINE      CODE     ---       #251
      010098A7H   LINE      CODE     ---       #252
      010098A9H   LINE      CODE     ---       #253
      010098ABH   LINE      CODE     ---       #254
      010098ADH   LINE      CODE     ---       #255
      010098AFH   LINE      CODE     ---       #257
      010098B2H   LINE      CODE     ---       #259
      010098B8H   LINE      CODE     ---       #260
      010098C9H   LINE      CODE     ---       #262
      010098CFH   LINE      CODE     ---       #263
      010098D5H   LINE      CODE     ---       #264
      010098DBH   LINE      CODE     ---       #265
      010098E1H   LINE      CODE     ---       #266
      ---         BLOCKEND  ---      ---       LVL=0

      01009CC1H   BLOCK     CODE     ---       LVL=0
      01009CC1H   LINE      CODE     ---       #268
      01009CC1H   LINE      CODE     ---       #269
      01009CC1H   LINE      CODE     ---       #271
      01009CC4H   LINE      CODE     ---       #273
      01009CC7H   LINE      CODE     ---       #275
      01009CCAH   LINE      CODE     ---       #277
      01009CCDH   LINE      CODE     ---       #279
      01009CD7H   LINE      CODE     ---       #281
      01009CD9H   LINE      CODE     ---       #282
      01009CDBH   LINE      CODE     ---       #283
      01009CDEH   LINE      CODE     ---       #284
      01009CE0H   LINE      CODE     ---       #285
      01009CE2H   LINE      CODE     ---       #286
      ---         BLOCKEND  ---      ---       LVL=0

      01009EE8H   BLOCK     CODE     ---       LVL=0
      01009EE8H   LINE      CODE     ---       #288
      01009EE8H   LINE      CODE     ---       #289
      01009EE8H   LINE      CODE     ---       #290
      01009EEFH   LINE      CODE     ---       #297
      01009EF7H   LINE      CODE     ---       #298
      ---         BLOCKEND  ---      ---       LVL=0

      01009D23H   BLOCK     CODE     ---       LVL=0
      01009D23H   LINE      CODE     ---       #301
      01009D23H   LINE      CODE     ---       #302
      01009D23H   LINE      CODE     ---       #303
      01009D29H   LINE      CODE     ---       #305
      01009D2AH   LINE      CODE     ---       #306
      01009D2DH   LINE      CODE     ---       #308
      01009D2FH   LINE      CODE     ---       #309
      01009D32H   LINE      CODE     ---       #311
      01009D34H   LINE      CODE     ---       #312
      01009D37H   LINE      CODE     ---       #314
      01009D3CH   LINE      CODE     ---       #315
      01009D3FH   LINE      CODE     ---       #316
      ---         BLOCKEND  ---      ---       LVL=0

      010095E0H   BLOCK     CODE     ---       LVL=0
      010095E0H   LINE      CODE     ---       #318
      010095E0H   LINE      CODE     ---       #319
      010095E0H   LINE      CODE     ---       #320
      010095E3H   LINE      CODE     ---       #321
      010095E3H   LINE      CODE     ---       #322
      010095F1H   LINE      CODE     ---       #324
      010095F1H   LINE      CODE     ---       #327
LX51 LINKER/LOCATER V4.47a                                                            03/27/2015  10:38:55  PAGE 47


      010095FFH   LINE      CODE     ---       #331
      01009606H   LINE      CODE     ---       #333
      01009611H   LINE      CODE     ---       #334
      0100961CH   LINE      CODE     ---       #337
      ---         BLOCKEND  ---      ---       LVL=0

      0100962CH   BLOCK     CODE     ---       LVL=0
      0100962CH   LINE      CODE     ---       #341
      0100962CH   LINE      CODE     ---       #342
      0100962CH   LINE      CODE     ---       #343
      01009637H   LINE      CODE     ---       #345
      0100963BH   LINE      CODE     ---       #346
      0100963EH   LINE      CODE     ---       #347
      01009642H   LINE      CODE     ---       #348
      01009645H   LINE      CODE     ---       #350
      0100964DH   LINE      CODE     ---       #351
      01009655H   LINE      CODE     ---       #353
      01009658H   LINE      CODE     ---       #356
      0100965AH   LINE      CODE     ---       #357
      0100965AH   LINE      CODE     ---       #358
      0100965DH   LINE      CODE     ---       #359
      01009660H   LINE      CODE     ---       #360
      01009663H   LINE      CODE     ---       #363
      01009666H   LINE      CODE     ---       #364
      01009666H   LINE      CODE     ---       #365
      01009669H   LINE      CODE     ---       #366
      0100966CH   LINE      CODE     ---       #367
      ---         BLOCKEND  ---      ---       LVL=0

      01009289H   BLOCK     CODE     ---       LVL=0
      01009289H   LINE      CODE     ---       #370
      01009289H   LINE      CODE     ---       #371
      01009289H   LINE      CODE     ---       #373
      0100928CH   LINE      CODE     ---       #374
      0100928CH   LINE      CODE     ---       #375
      0100928EH   LINE      CODE     ---       #376
      01009291H   LINE      CODE     ---       #377
      01009291H   LINE      CODE     ---       #379
      01009294H   LINE      CODE     ---       #380
      01009297H   LINE      CODE     ---       #382
      0100929EH   LINE      CODE     ---       #383
      0100929EH   LINE      CODE     ---       #384
      010092A1H   LINE      CODE     ---       #385
      010092A5H   LINE      CODE     ---       #386
      010092A7H   LINE      CODE     ---       #388
      010092A7H   LINE      CODE     ---       #389
      010092AAH   LINE      CODE     ---       #390
      010092AEH   LINE      CODE     ---       #391
      010092AEH   LINE      CODE     ---       #393
      010092B9H   LINE      CODE     ---       #395
      010092C3H   LINE      CODE     ---       #397
      010092C5H   LINE      CODE     ---       #399
      010092CBH   LINE      CODE     ---       #401
      010092CEH   LINE      CODE     ---       #402
      010092D0H   LINE      CODE     ---       #404
      010092DAH   LINE      CODE     ---       #406
      010092DDH   LINE      CODE     ---       #408
      010092E4H   LINE      CODE     ---       #409
      ---         BLOCKEND  ---      ---       LVL=0

      010098E2H   BLOCK     CODE     ---       LVL=0
      010098E2H   LINE      CODE     ---       #411
      010098E2H   LINE      CODE     ---       #412
      010098E2H   LINE      CODE     ---       #413
      010098E9H   LINE      CODE     ---       #416
LX51 LINKER/LOCATER V4.47a                                                            03/27/2015  10:38:55  PAGE 48


      010098ECH   LINE      CODE     ---       #420
      010098FCH   LINE      CODE     ---       #423
      0100990AH   LINE      CODE     ---       #427
      01009913H   LINE      CODE     ---       #430
      01009916H   LINE      CODE     ---       #431
      01009918H   LINE      CODE     ---       #432
      0100991AH   LINE      CODE     ---       #433
      0100991CH   LINE      CODE     ---       #434
      ---         BLOCKEND  ---      ---       LVL=0

      01009542H   BLOCK     CODE     ---       LVL=0
      01009542H   LINE      CODE     ---       #436
      01009542H   LINE      CODE     ---       #437
      01009542H   LINE      CODE     ---       #438
      01009545H   LINE      CODE     ---       #442
      01009547H   LINE      CODE     ---       #444
      0100954AH   LINE      CODE     ---       #447
      01009558H   LINE      CODE     ---       #450
      01009568H   LINE      CODE     ---       #453
      01009571H   LINE      CODE     ---       #456
      01009574H   LINE      CODE     ---       #457
      01009576H   LINE      CODE     ---       #458
      01009578H   LINE      CODE     ---       #459
      0100957AH   LINE      CODE     ---       #460
      0100957CH   LINE      CODE     ---       #462
      01009587H   LINE      CODE     ---       #463
      01009592H   LINE      CODE     ---       #464
      ---         BLOCKEND  ---      ---       LVL=0

      01008012H   BLOCK     CODE     ---       LVL=0
      01008012H   LINE      CODE     ---       #466
      01008012H   LINE      CODE     ---       #467
      01008012H   LINE      CODE     ---       #468
      01008018H   LINE      CODE     ---       #470
      0100801BH   LINE      CODE     ---       #472
      0100801EH   LINE      CODE     ---       #475
      0100801EH   LINE      CODE     ---       #476
      0100801EH   LINE      CODE     ---       #477
      01008021H   LINE      CODE     ---       #478
      01008021H   LINE      CODE     ---       #479
      01008028H   LINE      CODE     ---       #480
      01008028H   LINE      CODE     ---       #481
      0100802CH   LINE      CODE     ---       #482
      0100802FH   LINE      CODE     ---       #483
      01008032H   LINE      CODE     ---       #484
      01008032H   LINE      CODE     ---       #486
      01008039H   LINE      CODE     ---       #487
      01008039H   LINE      CODE     ---       #488
      0100803CH   LINE      CODE     ---       #489
      01008043H   LINE      CODE     ---       #490
      01008043H   LINE      CODE     ---       #492
      0100804AH   LINE      CODE     ---       #493
      0100804AH   LINE      CODE     ---       #494
      0100804DH   LINE      CODE     ---       #495
      01008054H   LINE      CODE     ---       #496
      01008054H   LINE      CODE     ---       #498
      0100805BH   LINE      CODE     ---       #499
      0100805BH   LINE      CODE     ---       #500
      0100805EH   LINE      CODE     ---       #501
      01008061H   LINE      CODE     ---       #502
      01008061H   LINE      CODE     ---       #504
      01008068H   LINE      CODE     ---       #505
      01008068H   LINE      CODE     ---       #506
      0100806BH   LINE      CODE     ---       #507
      01008071H   LINE      CODE     ---       #508
LX51 LINKER/LOCATER V4.47a                                                            03/27/2015  10:38:55  PAGE 49


      01008071H   LINE      CODE     ---       #510
      01008074H   LINE      CODE     ---       #511
      01008074H   LINE      CODE     ---       #512
      0100807EH   LINE      CODE     ---       #513
      0100807EH   LINE      CODE     ---       #515
      01008088H   LINE      CODE     ---       #516
      01008088H   LINE      CODE     ---       #518
      0100808BH   LINE      CODE     ---       #519
      ---         BLOCKEND  ---      ---       LVL=0

      ---         MODULE    ---      ---       REQUEST
      0000005DH   PUBLIC    DATA     ---       g_pbDataBuffer
      0000008DH   PUBLIC    IDATA    BYTE      s_bEpStatus
      0000007DH   PUBLIC    IDATA    ---       g_bOutputReport
      0000006DH   PUBLIC    IDATA    ---       g_bInputReport
      00000069H   PUBLIC    IDATA    ---       g_bAlternateSetting
      00000068H   PUBLIC    IDATA    BYTE      g_bHidInRegsInfo
      0000005BH   PUBLIC    DATA     ---       s_pStringDscrTmp
      00000020H.6 PUBLIC    BIT      BIT       ?TackleControlRequest?BIT
      01008CF9H   PUBLIC    CODE     ---       TackleControlRequest
      00000020H.7 PUBLIC    BIT      BIT       ?tackleVendorCommand?BIT
      01008EE4H   PUBLIC    CODE     ---       tackleVendorCommand
      00000020H.7 PUBLIC    BIT      BIT       ?tackleClassCommand?BIT
      0100949FH   PUBLIC    CODE     ---       tackleClassCommand
      01008DF0H   PUBLIC    CODE     ---       tackleHidSetReportData
      01009F25H   PUBLIC    CODE     ---       tackleHidSetReport
      01008C79H   PUBLIC    CODE     ---       tackleHidGetReport
      0100944AH   PUBLIC    CODE     ---       tackleGetStatus
      0100991DH   PUBLIC    CODE     ---       tackleClearFeature
      0100975BH   PUBLIC    CODE     ---       tackleSetFeature
      01009D40H   PUBLIC    CODE     ---       tackleGetInterface
      01009F37H   PUBLIC    CODE     ---       tackleGetConfiguration
      01009A8CH   PUBLIC    CODE     ---       tackleSetInterface
      01009A5CH   PUBLIC    CODE     ---       tackleSetConfiguration
      01009EBDH   PUBLIC    CODE     ---       epIntClearHalt
      01009E4AH   PUBLIC    CODE     ---       tackleSetAddress
      00000020H.7 PUBLIC    BIT      BIT       ?tackleGetDescriptor?BIT
      0100879DH   PUBLIC    CODE     ---       tackleGetDescriptor
      01009F11H   PUBLIC    CODE     ---       acquireHidDscrData
      01009FEAH   PUBLIC    CODE     ---       acquireHidReportDscrData
      01009FDDH   PUBLIC    CODE     ---       acquireStringDscrData
      010097A2H   PUBLIC    CODE     ---       acquireConfigDscrData
      01009A29H   PUBLIC    CODE     ---       acquireDeviceDscrData
      00000080H   SFRSYM    DATA     BYTE      P0
      00000090H   SFRSYM    DATA     BYTE      P1
      000000A0H   SFRSYM    DATA     BYTE      P2
      000000B0H   SFRSYM    DATA     BYTE      P3
      000000D0H.6 SFRSYM    DATA     BIT       AC
      000000A8H.7 SFRSYM    DATA     BIT       EA
      000000A8H   SFRSYM    DATA     BYTE      IE
      000000D0H.1 SFRSYM    DATA     BIT       FL
      000000B8H   SFRSYM    DATA     BYTE      IP
      00000098H   SFRSYM    DATA     BIT       RI
      000000D0H.7 SFRSYM    DATA     BIT       CY
      00000098H.1 SFRSYM    DATA     BIT       TI
      00000080H.7 SFRSYM    DATA     BIT       IDLE
      00000081H   SFRSYM    DATA     BYTE      SP
      000000D0H.2 SFRSYM    DATA     BIT       OV
      000000FBH   SFRSYM    DATA     BYTE      PIDH
      000000FAH   SFRSYM    DATA     BYTE      PIDL
      000000F9H   SFRSYM    DATA     BYTE      VIDH
      00000088H.1 SFRSYM    DATA     BIT       M00
      00000088H.5 SFRSYM    DATA     BIT       M01
      00000088H.2 SFRSYM    DATA     BIT       M10
      00000088H.6 SFRSYM    DATA     BIT       M11
LX51 LINKER/LOCATER V4.47a                                                            03/27/2015  10:38:55  PAGE 50


      000000F8H   SFRSYM    DATA     BYTE      VIDL
      000000BAH   SFRSYM    DATA     BYTE      S0RELH
      00000099H   SFRSYM    DATA     BYTE      SBUF
      00000087H   SFRSYM    DATA     BYTE      PCON
      000000AAH   SFRSYM    DATA     BYTE      S0RELL
      00000098H   SFRSYM    DATA     BYTE      SCON
      00000089H   SFRSYM    DATA     BYTE      TMOD
      00000088H   SFRSYM    DATA     BYTE      TCON
      00000088H.1 SFRSYM    DATA     BIT       GF0
      00000088H.1 SFRSYM    DATA     BIT       IE0
      00000088H.2 SFRSYM    DATA     BIT       GF1
      00000088H.3 SFRSYM    DATA     BIT       IE1
      000000F0H   SFRSYM    DATA     BYTE      B
      000000E0H   SFRSYM    DATA     BYTE      ACC
      00000088H.3 SFRSYM    DATA     BIT       CT0
      00000088H   SFRSYM    DATA     BIT       STOP
      000000A8H.4 SFRSYM    DATA     BIT       ES0
      00000088H.7 SFRSYM    DATA     BIT       CT1
      000000A8H.6 SFRSYM    DATA     BIT       ES1
      000000A8H.1 SFRSYM    DATA     BIT       ET0
      000000A8H.3 SFRSYM    DATA     BIT       ET1
      00000088H.5 SFRSYM    DATA     BIT       TF0
      000000A8H.5 SFRSYM    DATA     BIT       ET2
      00000088H.7 SFRSYM    DATA     BIT       TF1
      00000098H.2 SFRSYM    DATA     BIT       RB8
      0000008CH   SFRSYM    DATA     BYTE      TH0
      000000A8H   SFRSYM    DATA     BIT       EX0
      0000008DH   SFRSYM    DATA     BYTE      TH1
      00000088H   SFRSYM    DATA     BIT       IT0
      000000A8H.2 SFRSYM    DATA     BIT       EX1
      00000098H.3 SFRSYM    DATA     BIT       TB8
      00000088H.2 SFRSYM    DATA     BIT       IT1
      000000D0H   SFRSYM    DATA     BIT       P
      00000098H.7 SFRSYM    DATA     BIT       SM0
      0000008AH   SFRSYM    DATA     BYTE      TL0
      00000098H.6 SFRSYM    DATA     BIT       SM1
      0000008BH   SFRSYM    DATA     BYTE      TL1
      00000098H.5 SFRSYM    DATA     BIT       SM2
      00000088H.4 SFRSYM    DATA     BIT       GATE0
      000000B8H.4 SFRSYM    DATA     BIT       PS0
      00000090H   SFRSYM    DATA     BIT       GATE1
      000000B8H.6 SFRSYM    DATA     BIT       PS1
      000000B8H.1 SFRSYM    DATA     BIT       PT0
      00000086H   SFRSYM    DATA     BYTE      WDTREL
      000000D0H.3 SFRSYM    DATA     BIT       RS0
      000000B8H.3 SFRSYM    DATA     BIT       PT1
      000000D0H.4 SFRSYM    DATA     BIT       RS1
      000000B8H.5 SFRSYM    DATA     BIT       PT2
      00000088H.4 SFRSYM    DATA     BIT       TR0
      00000088H.6 SFRSYM    DATA     BIT       TR1
      000000B8H   SFRSYM    DATA     BIT       PX0
      000000B8H.2 SFRSYM    DATA     BIT       PX1
      00000083H   SFRSYM    DATA     BYTE      DPH
      00000082H   SFRSYM    DATA     BYTE      DPL
      00000088H.6 SFRSYM    DATA     BIT       SMOD0
      00000098H.4 SFRSYM    DATA     BIT       REN
      000000D8H   SFRSYM    DATA     BYTE      ADCON
      000000FDH   SFRSYM    DATA     BYTE      EXCAH
      000000FCH   SFRSYM    DATA     BYTE      EXCAL
      0000008EH   SFRSYM    DATA     BYTE      CKCON
      000000FFH   SFRSYM    DATA     BYTE      EXCLH
      000000D0H.5 SFRSYM    DATA     BIT       F0
      000000FEH   SFRSYM    DATA     BYTE      EXCLL
      000000D0H   SFRSYM    DATA     BYTE      PSW

LX51 LINKER/LOCATER V4.47a                                                            03/27/2015  10:38:55  PAGE 51


      010090A6H   BLOCK     CODE     ---       LVL=0
      ---         BLOCKEND  ---      ---       LVL=0

      01009A29H   BLOCK     CODE     ---       LVL=0
      01009A29H   LINE      CODE     ---       #66
      01009A29H   LINE      CODE     ---       #67
      01009A29H   LINE      CODE     ---       #68
      01009A2FH   LINE      CODE     ---       #69
      01009A2FH   LINE      CODE     ---       #70
      01009A3EH   LINE      CODE     ---       #71
      01009A41H   LINE      CODE     ---       #72
      01009A44H   LINE      CODE     ---       #73
      01009A47H   LINE      CODE     ---       #74
      01009A4AH   LINE      CODE     ---       #75
      01009A4DH   LINE      CODE     ---       #76
      01009A50H   LINE      CODE     ---       #77
      01009A52H   LINE      CODE     ---       #79
      01009A52H   LINE      CODE     ---       #80
      01009A55H   LINE      CODE     ---       #81
      01009A58H   LINE      CODE     ---       #82
      01009A58H   LINE      CODE     ---       #84
      01009A5BH   LINE      CODE     ---       #85
      ---         BLOCKEND  ---      ---       LVL=0

      010097A2H   BLOCK     CODE     ---       LVL=0
      010097A2H   LINE      CODE     ---       #87
      010097A2H   LINE      CODE     ---       #88
      010097A2H   LINE      CODE     ---       #89
      010097A8H   LINE      CODE     ---       #90
      010097A8H   LINE      CODE     ---       #91
      010097B7H   LINE      CODE     ---       #92
      010097BAH   LINE      CODE     ---       #93
      010097BCH   LINE      CODE     ---       #95
      010097BCH   LINE      CODE     ---       #96
      010097C5H   LINE      CODE     ---       #97
      010097C8H   LINE      CODE     ---       #98
      010097C8H   LINE      CODE     ---       #100
      010097CEH   LINE      CODE     ---       #101
      010097CEH   LINE      CODE     ---       #102
      010097E4H   LINE      CODE     ---       #103
      010097E4H   LINE      CODE     ---       #104
      ---         BLOCKEND  ---      ---       LVL=0

      01009FDDH   BLOCK     CODE     ---       LVL=0
      01009FDDH   LINE      CODE     ---       #106
      01009FDDH   LINE      CODE     ---       #107
      01009FDDH   LINE      CODE     ---       #108
      01009FE6H   LINE      CODE     ---       #109
      01009FE9H   LINE      CODE     ---       #110
      ---         BLOCKEND  ---      ---       LVL=0

      01009FEAH   BLOCK     CODE     ---       LVL=0
      01009FEAH   LINE      CODE     ---       #112
      01009FEAH   LINE      CODE     ---       #113
      01009FEAH   LINE      CODE     ---       #114
      01009FF3H   LINE      CODE     ---       #115
      01009FF6H   LINE      CODE     ---       #116
      ---         BLOCKEND  ---      ---       LVL=0

      01009F11H   BLOCK     CODE     ---       LVL=0
      01009F11H   LINE      CODE     ---       #118
      01009F11H   LINE      CODE     ---       #119
      01009F11H   LINE      CODE     ---       #120
      01009F21H   LINE      CODE     ---       #121
      01009F24H   LINE      CODE     ---       #122
LX51 LINKER/LOCATER V4.47a                                                            03/27/2015  10:38:55  PAGE 52


      ---         BLOCKEND  ---      ---       LVL=0

      0100879DH   BLOCK     CODE     ---       LVL=0
      00000020H.7 SYMBOL    BIT      BIT       dataStage
      0100879DH   LINE      CODE     ---       #124
      0100879DH   LINE      CODE     ---       #125
      0100879DH   LINE      CODE     ---       #126
      010087BAH   LINE      CODE     ---       #127
      010087BAH   LINE      CODE     ---       #128
      010087BAH   LINE      CODE     ---       #129
      010087BDH   LINE      CODE     ---       #130
      010087BDH   LINE      CODE     ---       #131
      010087C3H   LINE      CODE     ---       #132
      010087C3H   LINE      CODE     ---       #133
      010087C6H   LINE      CODE     ---       #134
      010087C9H   LINE      CODE     ---       #136
      010087C9H   LINE      CODE     ---       #137
      010087CCH   LINE      CODE     ---       #138
      010087CCH   LINE      CODE     ---       #139
      010087E0H   LINE      CODE     ---       #140
      010087E0H   LINE      CODE     ---       #141
      010087E3H   LINE      CODE     ---       #142
      010087E6H   LINE      CODE     ---       #144
      010087E6H   LINE      CODE     ---       #145
      010087E9H   LINE      CODE     ---       #146
      010087E9H   LINE      CODE     ---       #147
      01008800H   LINE      CODE     ---       #148
      01008800H   LINE      CODE     ---       #149
      01008800H   LINE      CODE     ---       #150
      01008806H   LINE      CODE     ---       #151
      0100880CH   LINE      CODE     ---       #152
      0100880EH   LINE      CODE     ---       #154
      0100880EH   LINE      CODE     ---       #155
      01008814H   LINE      CODE     ---       #156
      01008814H   LINE      CODE     ---       #157
      01008816H   LINE      CODE     ---       #159
      01008816H   LINE      CODE     ---       #160
      0100881CH   LINE      CODE     ---       #161
      0100881CH   LINE      CODE     ---       #162
      0100881EH   LINE      CODE     ---       #164
      0100881EH   LINE      CODE     ---       #166
      0100881EH   LINE      CODE     ---       #168
      0100881EH   LINE      CODE     ---       #169
      0100881EH   LINE      CODE     ---       #170
      01008824H   LINE      CODE     ---       #171
      01008831H   LINE      CODE     ---       #172
      01008833H   LINE      CODE     ---       #174
      01008833H   LINE      CODE     ---       #175
      01008835H   LINE      CODE     ---       #176
      01008835H   LINE      CODE     ---       #177
      01008835H   LINE      CODE     ---       #178
      01008835H   LINE      CODE     ---       #179
      01008838H   LINE      CODE     ---       #180
      0100883AH   LINE      CODE     ---       #182
      0100883AH   LINE      CODE     ---       #183
      0100883DH   LINE      CODE     ---       #184
      0100883DH   LINE      CODE     ---       #185
      01008843H   LINE      CODE     ---       #186
      01008843H   LINE      CODE     ---       #187
      01008846H   LINE      CODE     ---       #188
      01008848H   LINE      CODE     ---       #190
      01008848H   LINE      CODE     ---       #191
      0100884BH   LINE      CODE     ---       #192
      0100884BH   LINE      CODE     ---       #193
      0100885FH   LINE      CODE     ---       #194
LX51 LINKER/LOCATER V4.47a                                                            03/27/2015  10:38:55  PAGE 53


      0100885FH   LINE      CODE     ---       #195
      01008862H   LINE      CODE     ---       #196
      01008864H   LINE      CODE     ---       #198
      01008864H   LINE      CODE     ---       #199
      01008866H   LINE      CODE     ---       #200
      01008866H   LINE      CODE     ---       #202
      01008867H   LINE      CODE     ---       #203
      ---         BLOCKEND  ---      ---       LVL=0

      01009E4AH   BLOCK     CODE     ---       LVL=0
      01009E4AH   LINE      CODE     ---       #205
      01009E4AH   LINE      CODE     ---       #206
      01009E4AH   LINE      CODE     ---       #207
      01009E52H   LINE      CODE     ---       #209
      01009E59H   LINE      CODE     ---       #210
      01009E60H   LINE      CODE     ---       #212
      01009E61H   LINE      CODE     ---       #213
      ---         BLOCKEND  ---      ---       LVL=0

      01009EBDH   BLOCK     CODE     ---       LVL=0
      01009EBDH   LINE      CODE     ---       #215
      01009EBDH   LINE      CODE     ---       #216
      01009EBDH   LINE      CODE     ---       #217
      01009EBDH   LINE      CODE     ---       #218
      01009EC3H   LINE      CODE     ---       #219
      01009ECAH   LINE      CODE     ---       #220
      01009ECFH   LINE      CODE     ---       #221
      01009ED2H   LINE      CODE     ---       #222
      ---         BLOCKEND  ---      ---       LVL=0

      01009A5CH   BLOCK     CODE     ---       LVL=0
      01009A5CH   LINE      CODE     ---       #224
      01009A5CH   LINE      CODE     ---       #225
      01009A5CH   LINE      CODE     ---       #226
      01009A5FH   LINE      CODE     ---       #228
      01009A66H   LINE      CODE     ---       #229
      01009A66H   LINE      CODE     ---       #230
      01009A6AH   LINE      CODE     ---       #232
      01009A7BH   LINE      CODE     ---       #233
      01009A7DH   LINE      CODE     ---       #235
      01009A7DH   LINE      CODE     ---       #236
      01009A81H   LINE      CODE     ---       #237
      01009A81H   LINE      CODE     ---       #239
      01009A87H   LINE      CODE     ---       #240
      01009A87H   LINE      CODE     ---       #241
      01009A8AH   LINE      CODE     ---       #242
      01009A8AH   LINE      CODE     ---       #244
      01009A8BH   LINE      CODE     ---       #245
      ---         BLOCKEND  ---      ---       LVL=0

      01009A8CH   BLOCK     CODE     ---       LVL=0
      01009A8CH   LINE      CODE     ---       #247
      01009A8CH   LINE      CODE     ---       #248
      01009A8CH   LINE      CODE     ---       #249
      01009A93H   LINE      CODE     ---       #250
      01009A93H   LINE      CODE     ---       #251
      01009A95H   LINE      CODE     ---       #252
      01009A95H   LINE      CODE     ---       #254
      01009A9BH   LINE      CODE     ---       #255
      01009A9BH   LINE      CODE     ---       #256
      01009A9EH   LINE      CODE     ---       #257
      01009A9EH   LINE      CODE     ---       #259
      01009AA3H   LINE      CODE     ---       #261
      01009AADH   LINE      CODE     ---       #262
      01009AADH   LINE      CODE     ---       #263
LX51 LINKER/LOCATER V4.47a                                                            03/27/2015  10:38:55  PAGE 54


      01009AB2H   LINE      CODE     ---       #264
      01009AB2H   LINE      CODE     ---       #265
      01009AB3H   LINE      CODE     ---       #266
      01009AB3H   LINE      CODE     ---       #267
      01009AB3H   LINE      CODE     ---       #269
      01009ABAH   LINE      CODE     ---       #271
      01009ABBH   LINE      CODE     ---       #272
      ---         BLOCKEND  ---      ---       LVL=0

      01009F37H   BLOCK     CODE     ---       LVL=0
      01009F37H   LINE      CODE     ---       #274
      01009F37H   LINE      CODE     ---       #275
      01009F37H   LINE      CODE     ---       #276
      01009F3DH   LINE      CODE     ---       #277
      01009F46H   LINE      CODE     ---       #279
      01009F47H   LINE      CODE     ---       #280
      ---         BLOCKEND  ---      ---       LVL=0

      01009D40H   BLOCK     CODE     ---       LVL=0
      01009D40H   LINE      CODE     ---       #282
      01009D40H   LINE      CODE     ---       #283
      01009D40H   LINE      CODE     ---       #284
      01009D47H   LINE      CODE     ---       #285
      01009D47H   LINE      CODE     ---       #286
      01009D49H   LINE      CODE     ---       #287
      01009D49H   LINE      CODE     ---       #289
      01009D4FH   LINE      CODE     ---       #291
      01009D5BH   LINE      CODE     ---       #293
      01009D5CH   LINE      CODE     ---       #294
      ---         BLOCKEND  ---      ---       LVL=0

      0100975BH   BLOCK     CODE     ---       LVL=0
      0100975BH   LINE      CODE     ---       #296
      0100975BH   LINE      CODE     ---       #297
      0100975BH   LINE      CODE     ---       #298
      0100975EH   LINE      CODE     ---       #299
      01009760H   LINE      CODE     ---       #300
      01009760H   LINE      CODE     ---       #301
      01009766H   LINE      CODE     ---       #302
      01009766H   LINE      CODE     ---       #303
      01009769H   LINE      CODE     ---       #304
      01009769H   LINE      CODE     ---       #305
      01009770H   LINE      CODE     ---       #306
      01009770H   LINE      CODE     ---       #308
      01009772H   LINE      CODE     ---       #309
      01009772H   LINE      CODE     ---       #310
      01009772H   LINE      CODE     ---       #311
      01009778H   LINE      CODE     ---       #312
      01009778H   LINE      CODE     ---       #313
      0100977CH   LINE      CODE     ---       #314
      0100977CH   LINE      CODE     ---       #315
      01009782H   LINE      CODE     ---       #316
      01009785H   LINE      CODE     ---       #317
      01009785H   LINE      CODE     ---       #318
      01009785H   LINE      CODE     ---       #319
      0100978DH   LINE      CODE     ---       #320
      01009792H   LINE      CODE     ---       #321
      01009798H   LINE      CODE     ---       #323
      0100979AH   LINE      CODE     ---       #324
      0100979AH   LINE      CODE     ---       #325
      0100979EH   LINE      CODE     ---       #326
      0100979EH   LINE      CODE     ---       #327
      010097A0H   LINE      CODE     ---       #328
      010097A0H   LINE      CODE     ---       #329
      010097A0H   LINE      CODE     ---       #330
LX51 LINKER/LOCATER V4.47a                                                            03/27/2015  10:38:55  PAGE 55


      010097A0H   LINE      CODE     ---       #332
      010097A1H   LINE      CODE     ---       #333
      ---         BLOCKEND  ---      ---       LVL=0

      0100991DH   BLOCK     CODE     ---       LVL=0
      0100991DH   LINE      CODE     ---       #335
      0100991DH   LINE      CODE     ---       #336
      0100991DH   LINE      CODE     ---       #337
      01009920H   LINE      CODE     ---       #338
      01009922H   LINE      CODE     ---       #339
      01009922H   LINE      CODE     ---       #340
      01009928H   LINE      CODE     ---       #341
      01009928H   LINE      CODE     ---       #342
      0100992BH   LINE      CODE     ---       #343
      0100992BH   LINE      CODE     ---       #344
      01009932H   LINE      CODE     ---       #345
      01009932H   LINE      CODE     ---       #347
      01009934H   LINE      CODE     ---       #348
      01009934H   LINE      CODE     ---       #349
      01009934H   LINE      CODE     ---       #350
      0100993AH   LINE      CODE     ---       #351
      0100993AH   LINE      CODE     ---       #352
      0100993EH   LINE      CODE     ---       #353
      0100993EH   LINE      CODE     ---       #354
      01009944H   LINE      CODE     ---       #355
      01009947H   LINE      CODE     ---       #356
      01009947H   LINE      CODE     ---       #357
      0100994AH   LINE      CODE     ---       #359
      0100994CH   LINE      CODE     ---       #360
      0100994CH   LINE      CODE     ---       #361
      01009950H   LINE      CODE     ---       #362
      01009950H   LINE      CODE     ---       #363
      01009952H   LINE      CODE     ---       #364
      01009952H   LINE      CODE     ---       #365
      01009952H   LINE      CODE     ---       #366
      01009952H   LINE      CODE     ---       #368
      01009953H   LINE      CODE     ---       #369
      ---         BLOCKEND  ---      ---       LVL=0

      0100944AH   BLOCK     CODE     ---       LVL=0
      0100944AH   LINE      CODE     ---       #371
      0100944AH   LINE      CODE     ---       #372
      0100944AH   LINE      CODE     ---       #373
      01009458H   LINE      CODE     ---       #374
      01009458H   LINE      CODE     ---       #375
      01009458H   LINE      CODE     ---       #376
      0100945EH   LINE      CODE     ---       #377
      01009465H   LINE      CODE     ---       #378
      01009465H   LINE      CODE     ---       #379
      01009468H   LINE      CODE     ---       #380
      01009468H   LINE      CODE     ---       #381
      0100946AH   LINE      CODE     ---       #383
      0100946AH   LINE      CODE     ---       #384
      0100946DH   LINE      CODE     ---       #385
      0100946FH   LINE      CODE     ---       #387
      0100946FH   LINE      CODE     ---       #388
      01009481H   LINE      CODE     ---       #389
      0100948CH   LINE      CODE     ---       #390
      0100948EH   LINE      CODE     ---       #392
      0100948EH   LINE      CODE     ---       #393
      01009490H   LINE      CODE     ---       #394
      01009490H   LINE      CODE     ---       #396
      01009493H   LINE      CODE     ---       #397
      01009498H   LINE      CODE     ---       #398
      0100949DH   LINE      CODE     ---       #400
LX51 LINKER/LOCATER V4.47a                                                            03/27/2015  10:38:55  PAGE 56


      0100949EH   LINE      CODE     ---       #401
      ---         BLOCKEND  ---      ---       LVL=0

      01008C79H   BLOCK     CODE     ---       LVL=0
      01008C79H   LINE      CODE     ---       #404
      01008C79H   LINE      CODE     ---       #405
      01008C79H   LINE      CODE     ---       #406
      01008C82H   LINE      CODE     ---       #407
      01008C82H   LINE      CODE     ---       #408
      01008C82H   LINE      CODE     ---       #409
      01008C88H   LINE      CODE     ---       #410
      01008C88H   LINE      CODE     ---       #411
      01008C8CH   LINE      CODE     ---       #412
      01008C93H   LINE      CODE     ---       #413
      01008C99H   LINE      CODE     ---       #415
      01008CA8H   LINE      CODE     ---       #416
      01008CBEH   LINE      CODE     ---       #417
      01008CBEH   LINE      CODE     ---       #418
      01008CCAH   LINE      CODE     ---       #419
      01008CCEH   LINE      CODE     ---       #421
      01008CD7H   LINE      CODE     ---       #422
      01008CD9H   LINE      CODE     ---       #424
      01008CD9H   LINE      CODE     ---       #425
      01008CDBH   LINE      CODE     ---       #426
      01008CDBH   LINE      CODE     ---       #427
      01008CDBH   LINE      CODE     ---       #429
      01008CDBH   LINE      CODE     ---       #430
      01008CF0H   LINE      CODE     ---       #431
      01008CF2H   LINE      CODE     ---       #433
      01008CF2H   LINE      CODE     ---       #434
      01008CF4H   LINE      CODE     ---       #435
      01008CF4H   LINE      CODE     ---       #437
      01008CF4H   LINE      CODE     ---       #438
      01008CF7H   LINE      CODE     ---       #440
      01008CF8H   LINE      CODE     ---       #441
      ---         BLOCKEND  ---      ---       LVL=0

      01009F25H   BLOCK     CODE     ---       LVL=0
      01009F25H   LINE      CODE     ---       #443
      01009F25H   LINE      CODE     ---       #444
      01009F25H   LINE      CODE     ---       #445
      01009F2EH   LINE      CODE     ---       #446
      01009F2EH   LINE      CODE     ---       #447
      01009F2EH   LINE      CODE     ---       #448
      01009F2EH   LINE      CODE     ---       #450
      01009F2EH   LINE      CODE     ---       #451
      01009F30H   LINE      CODE     ---       #453
      01009F30H   LINE      CODE     ---       #454
      01009F32H   LINE      CODE     ---       #455
      01009F32H   LINE      CODE     ---       #457
      01009F32H   LINE      CODE     ---       #458
      01009F35H   LINE      CODE     ---       #460
      01009F36H   LINE      CODE     ---       #461
      ---         BLOCKEND  ---      ---       LVL=0

      01008DF0H   BLOCK     CODE     ---       LVL=0
      01008DF0H   LINE      CODE     ---       #463
      01008DF0H   LINE      CODE     ---       #464
      01008DF0H   LINE      CODE     ---       #465
      01008DF9H   LINE      CODE     ---       #466
      01008DF9H   LINE      CODE     ---       #467
      01008DF9H   LINE      CODE     ---       #468
      01008E00H   LINE      CODE     ---       #469
      01008E02H   LINE      CODE     ---       #471
      01008E02H   LINE      CODE     ---       #472
LX51 LINKER/LOCATER V4.47a                                                            03/27/2015  10:38:55  PAGE 57


      01008E08H   LINE      CODE     ---       #473
      01008E08H   LINE      CODE     ---       #474
      01008E11H   LINE      CODE     ---       #475
      01008E11H   LINE      CODE     ---       #476
      01008E20H   LINE      CODE     ---       #477
      01008E26H   LINE      CODE     ---       #478
      01008E2CH   LINE      CODE     ---       #479
      01008E2EH   LINE      CODE     ---       #481
      01008E2EH   LINE      CODE     ---       #482
      01008E37H   LINE      CODE     ---       #483
      01008E44H   LINE      CODE     ---       #484
      01008E4EH   LINE      CODE     ---       #485
      01008E4EH   LINE      CODE     ---       #486
      01008E55H   LINE      CODE     ---       #487
      01008E59H   LINE      CODE     ---       #488
      01008E59H   LINE      CODE     ---       #490
      01008E63H   LINE      CODE     ---       #491
      01008E65H   LINE      CODE     ---       #493
      01008E65H   LINE      CODE     ---       #494
      01008E67H   LINE      CODE     ---       #495
      01008E67H   LINE      CODE     ---       #496
      01008E67H   LINE      CODE     ---       #498
      01008E67H   LINE      CODE     ---       #499
      01008E69H   LINE      CODE     ---       #500
      01008E69H   LINE      CODE     ---       #502
      01008E6AH   LINE      CODE     ---       #503
      ---         BLOCKEND  ---      ---       LVL=0

      0100949FH   BLOCK     CODE     ---       LVL=0
      00000020H.7 SYMBOL    BIT      BIT       dataStage
      0100949FH   LINE      CODE     ---       #505
      0100949FH   LINE      CODE     ---       #506
      0100949FH   LINE      CODE     ---       #507
      010094A2H   LINE      CODE     ---       #509
      010094A6H   LINE      CODE     ---       #510
      010094A6H   LINE      CODE     ---       #511
      010094A9H   LINE      CODE     ---       #513
      010094ADH   LINE      CODE     ---       #514
      010094ADH   LINE      CODE     ---       #515
      010094B4H   LINE      CODE     ---       #516
      010094B4H   LINE      CODE     ---       #517
      010094BBH   LINE      CODE     ---       #518
      010094BBH   LINE      CODE     ---       #519
      010094BEH   LINE      CODE     ---       #520
      010094BEH   LINE      CODE     ---       #521
      010094CBH   LINE      CODE     ---       #522
      010094CBH   LINE      CODE     ---       #523
      010094CBH   LINE      CODE     ---       #524
      010094CEH   LINE      CODE     ---       #526
      010094CEH   LINE      CODE     ---       #527
      010094D1H   LINE      CODE     ---       #529
      010094D1H   LINE      CODE     ---       #530
      010094D6H   LINE      CODE     ---       #531
      010094D8H   LINE      CODE     ---       #532
      010094D8H   LINE      CODE     ---       #533
      010094D8H   LINE      CODE     ---       #535
      010094D8H   LINE      CODE     ---       #536
      010094DEH   LINE      CODE     ---       #537
      010094DEH   LINE      CODE     ---       #538
      010094DEH   LINE      CODE     ---       #539
      010094E1H   LINE      CODE     ---       #540
      010094E1H   LINE      CODE     ---       #541
      010094E1H   LINE      CODE     ---       #542
      010094E1H   LINE      CODE     ---       #544
      010094E1H   LINE      CODE     ---       #545
LX51 LINKER/LOCATER V4.47a                                                            03/27/2015  10:38:55  PAGE 58


      010094E3H   LINE      CODE     ---       #546
      010094E3H   LINE      CODE     ---       #547
      010094E3H   LINE      CODE     ---       #548
      010094E8H   LINE      CODE     ---       #549
      010094E8H   LINE      CODE     ---       #550
      010094EFH   LINE      CODE     ---       #551
      010094EFH   LINE      CODE     ---       #553
      010094F0H   LINE      CODE     ---       #554
      ---         BLOCKEND  ---      ---       LVL=0

      01008EE4H   BLOCK     CODE     ---       LVL=0
      00000020H.7 SYMBOL    BIT      BIT       dataStage
      01008EE4H   LINE      CODE     ---       #556
      01008EE4H   LINE      CODE     ---       #557
      01008EE4H   LINE      CODE     ---       #558
      01008EE7H   LINE      CODE     ---       #559
      01008EE7H   LINE      CODE     ---       #560
      01008EEAH   LINE      CODE     ---       #561
      01008EF5H   LINE      CODE     ---       #562
      01008EF5H   LINE      CODE     ---       #563
      01008EFBH   LINE      CODE     ---       #564
      01008EFDH   LINE      CODE     ---       #566
      01008EFDH   LINE      CODE     ---       #567
      01008EFFH   LINE      CODE     ---       #568
      01008EFFH   LINE      CODE     ---       #570
      01008F04H   LINE      CODE     ---       #571
      01008F04H   LINE      CODE     ---       #572
      01008F0AH   LINE      CODE     ---       #573
      01008F0AH   LINE      CODE     ---       #574
      01008F0FH   LINE      CODE     ---       #575
      01008F1BH   LINE      CODE     ---       #576
      01008F1BH   LINE      CODE     ---       #577
      01008F27H   LINE      CODE     ---       #578
      01008F2BH   LINE      CODE     ---       #580
      01008F2DH   LINE      CODE     ---       #581
      01008F2DH   LINE      CODE     ---       #582
      01008F2DH   LINE      CODE     ---       #584
      01008F2DH   LINE      CODE     ---       #585
      01008F33H   LINE      CODE     ---       #586
      01008F33H   LINE      CODE     ---       #587
      01008F35H   LINE      CODE     ---       #588
      01008F35H   LINE      CODE     ---       #589
      01008F35H   LINE      CODE     ---       #590
      01008F35H   LINE      CODE     ---       #592
      01008F35H   LINE      CODE     ---       #593
      01008F3BH   LINE      CODE     ---       #594
      01008F3BH   LINE      CODE     ---       #595
      01008F40H   LINE      CODE     ---       #596
      01008F4CH   LINE      CODE     ---       #597
      01008F4CH   LINE      CODE     ---       #598
      01008F53H   LINE      CODE     ---       #599
      01008F57H   LINE      CODE     ---       #601
      01008F59H   LINE      CODE     ---       #602
      01008F59H   LINE      CODE     ---       #603
      01008F59H   LINE      CODE     ---       #605
      01008F5AH   LINE      CODE     ---       #606
      ---         BLOCKEND  ---      ---       LVL=0

      01008CF9H   BLOCK     CODE     ---       LVL=0
      00000020H.6 SYMBOL    BIT      BIT       dataStage
      01008CF9H   LINE      CODE     ---       #608
      01008CF9H   LINE      CODE     ---       #609
      01008CF9H   LINE      CODE     ---       #610
      01008CFFH   LINE      CODE     ---       #612
      01008D01H   LINE      CODE     ---       #613
LX51 LINKER/LOCATER V4.47a                                                            03/27/2015  10:38:55  PAGE 59


      01008D01H   LINE      CODE     ---       #614
      01008D04H   LINE      CODE     ---       #615
      01008D04H   LINE      CODE     ---       #616
      01008D08H   LINE      CODE     ---       #617
      01008D2CH   LINE      CODE     ---       #618
      01008D2CH   LINE      CODE     ---       #619
      01008D2CH   LINE      CODE     ---       #620
      01008D30H   LINE      CODE     ---       #622
      01008D30H   LINE      CODE     ---       #623
      01008D33H   LINE      CODE     ---       #625
      01008D33H   LINE      CODE     ---       #626
      01008D36H   LINE      CODE     ---       #628
      01008D36H   LINE      CODE     ---       #629
      01008D39H   LINE      CODE     ---       #631
      01008D39H   LINE      CODE     ---       #632
      01008D3CH   LINE      CODE     ---       #634
      01008D3CH   LINE      CODE     ---       #635
      01008D3FH   LINE      CODE     ---       #637
      01008D3FH   LINE      CODE     ---       #638
      01008D42H   LINE      CODE     ---       #640
      01008D42H   LINE      CODE     ---       #641
      01008D45H   LINE      CODE     ---       #643
      01008D45H   LINE      CODE     ---       #644
      01008D48H   LINE      CODE     ---       #645
      01008D48H   LINE      CODE     ---       #646
      01008D48H   LINE      CODE     ---       #648
      01008D48H   LINE      CODE     ---       #649
      01008D4EH   LINE      CODE     ---       #650
      01008D4EH   LINE      CODE     ---       #651
      01008D4EH   LINE      CODE     ---       #652
      01008D53H   LINE      CODE     ---       #653
      01008D53H   LINE      CODE     ---       #654
      01008D53H   LINE      CODE     ---       #655
      01008D53H   LINE      CODE     ---       #656
      01008D58H   LINE      CODE     ---       #657
      01008D58H   LINE      CODE     ---       #658
      01008D5BH   LINE      CODE     ---       #659
      01008D60H   LINE      CODE     ---       #661
      01008D67H   LINE      CODE     ---       #662
      01008D67H   LINE      CODE     ---       #663
      01008D6CH   LINE      CODE     ---       #664
      01008D6CH   LINE      CODE     ---       #665
      01008D73H   LINE      CODE     ---       #666
      01008D73H   LINE      CODE     ---       #668
      01008D74H   LINE      CODE     ---       #669
      ---         BLOCKEND  ---      ---       LVL=0

      ---         MODULE    ---      ---       DSCR
      0100A290H   PUBLIC    CODE     ---       DEVICEDSCR
      0100A3ACH   PUBLIC    CODE     ---       LANGIDSTRINGDSCR
      0100A3B0H   PUBLIC    CODE     ---       MANUFACTURESTRINGDSCR
      0100A3E2H   PUBLIC    CODE     ---       PRODUCTSTRINGDSCR
      0100A2A4H   PUBLIC    CODE     ---       T1_CONFIGDSCR
      0100A39AH   PUBLIC    CODE     ---       T1_HIDDSCR
      0100A424H   PUBLIC    CODE     ---       TX_HIDREPORTDSCR
      0100A416H   PUBLIC    CODE     ---       VERSIONSTRINGDSCR
      00000006H   SYMBOL    NUMBER   ---       AC_SUBTYPE_FEATURE
      00000001H   SYMBOL    NUMBER   ---       AC_SUBTYPE_HEADER
      00000002H   SYMBOL    NUMBER   ---       AC_SUBTYPE_IT
      00000004H   SYMBOL    NUMBER   ---       AC_SUBTYPE_MIXER
      00000003H   SYMBOL    NUMBER   ---       AC_SUBTYPE_OT
      00000005H   SYMBOL    NUMBER   ---       AC_SUBTYPE_SELECTOR
      00000002H   SYMBOL    NUMBER   ---       AS_SUBTYPE_FORMAT
      00000001H   SYMBOL    NUMBER   ---       AS_SUBTYPE_GENERAL
      0000000CH   SYMBOL    NUMBER   ---       DSCR_AC_IT_LEN
LX51 LINKER/LOCATER V4.47a                                                            03/27/2015  10:38:55  PAGE 60


      00000009H   SYMBOL    NUMBER   ---       DSCR_AC_OT_LEN
      00000007H   SYMBOL    NUMBER   ---       DSCR_AS_GENERAL_LEN
      00000002H   SYMBOL    NUMBER   ---       DSCR_CONFIG
      00000009H   SYMBOL    NUMBER   ---       DSCR_CONFIG_LEN
      00000025H   SYMBOL    NUMBER   ---       DSCR_CS_ENDPOINT
      00000024H   SYMBOL    NUMBER   ---       DSCR_CS_INTERFACE
      00000001H   SYMBOL    NUMBER   ---       DSCR_DEVICE
      00000012H   SYMBOL    NUMBER   ---       DSCR_DEVICE_LEN
      00000005H   SYMBOL    NUMBER   ---       DSCR_ENDPNT
      00000007H   SYMBOL    NUMBER   ---       DSCR_ENDPNT_LEN
      00000007H   SYMBOL    NUMBER   ---       DSCR_EP_GENERAL_LEN
      00000009H   SYMBOL    NUMBER   ---       DSCR_HID_LEN
      00000004H   SYMBOL    NUMBER   ---       DSCR_INTRFC
      00000009H   SYMBOL    NUMBER   ---       DSCR_INTRFC_LEN
      00000003H   SYMBOL    NUMBER   ---       DSCR_STRING
      00000001H   SYMBOL    NUMBER   ---       EP_SUBTYPE_GENERAL
      00000002H   SYMBOL    NUMBER   ---       ET_BULK
      00000000H   SYMBOL    NUMBER   ---       ET_CONTROL
      00000003H   SYMBOL    NUMBER   ---       ET_INT
      00000001H   SYMBOL    NUMBER   ---       ET_ISO
      0000A3B0H   SYMBOL    CODE     ---       LANGIDSTRINGDSCREND
      0000A3E2H   SYMBOL    CODE     ---       MANUFACTURESTRINGDSCREND
      0000A416H   SYMBOL    CODE     ---       PRODUCTSTRINGDSCREND
      0000A305H   SYMBOL    CODE     ---       T1_ACINTERFACEDSCREND
      0000A2B6H   SYMBOL    CODE     ---       T1_ACINTRFCDSCRHEADER
      0000A2C0H   SYMBOL    CODE     ---       T1_ACINTRFCDSCRHEADEREND
      0000A31EH   SYMBOL    CODE     ---       T1_AS1FORMATDSCR
      0000A33BH   SYMBOL    CODE     ---       T1_AS1FORMATDSCREND
      0000A364H   SYMBOL    CODE     ---       T1_AS2FORMATDSCR
      0000A381H   SYMBOL    CODE     ---       T1_AS2FORMATDSCREND
      0000A3AAH   SYMBOL    CODE     ---       T1_CONFIGDSCREND
      0000A2EAH   SYMBOL    CODE     ---       T1_FEATUREUNIT5DSCR
      0000A2F4H   SYMBOL    CODE     ---       T1_FEATUREUNIT5DSCREND
      0000A2F4H   SYMBOL    CODE     ---       T1_FEATUREUNIT6DSCR
      0000A2FEH   SYMBOL    CODE     ---       T1_FEATUREUNIT6DSCREND
      0000A2FEH   SYMBOL    CODE     ---       T1_SELECTORUNIT8DSCR
      0000A305H   SYMBOL    CODE     ---       T1_SELECTORUNIT8DSCREND
      0000A469H   SYMBOL    CODE     ---       TX_HIDREPORTDSCREND
      0000A422H   SYMBOL    CODE     ---       VERSIONSTRINGDSCREND

      ---         MODULE    ---      ---       ?C_STARTUP
      0100800FH   PUBLIC    CODE     ---       ?C_STARTUP
      000000E0H   SYMBOL    DATA     ---       ACC
      000000F0H   SYMBOL    DATA     ---       B
      00000083H   SYMBOL    DATA     ---       DPH
      00000082H   SYMBOL    DATA     ---       DPL
      00000000H   SYMBOL    NUMBER   ---       IBPSTACK
      00000100H   SYMBOL    NUMBER   ---       IBPSTACKTOP
      00000000H   SYMBOL    NUMBER   ---       IDATALEN
      000000B8H   SYMBOL    DATA     ---       IP
      00000000H   SYMBOL    NUMBER   ---       PBPSTACK
      00000100H   SYMBOL    NUMBER   ---       PBPSTACKTOP
      00000000H   SYMBOL    NUMBER   ---       PDATALEN
      00000000H   SYMBOL    NUMBER   ---       PDATASTART
      00000000H   SYMBOL    NUMBER   ---       PPAGE
      00000000H   SYMBOL    NUMBER   ---       PPAGEENABLE
      000000A0H   SYMBOL    DATA     ---       PPAGE_SFR
      00000081H   SYMBOL    DATA     ---       SP
      01009FFEH   SYMBOL    CODE     ---       STARTUP1
      00000000H   SYMBOL    NUMBER   ---       XBPSTACK
      00000000H   SYMBOL    NUMBER   ---       XBPSTACKTOP
      00000000H   SYMBOL    NUMBER   ---       XDATALEN
      00000000H   SYMBOL    NUMBER   ---       XDATASTART
      0100800FH   LINE      CODE     ---       #129
      01009FFEH   LINE      CODE     ---       #187
LX51 LINKER/LOCATER V4.47a                                                            03/27/2015  10:38:55  PAGE 61


      0100A001H   LINE      CODE     ---       #198

      ---         MODULE    ---      ---       PERI_LIB
      00000065H   PUBLIC    IDATA    ---       g_bHidI2CSInfo
      02000A74H   PUBLIC    XDATA    BYTE      I2CM_DEV_ADDR
      02000A72H   PUBLIC    XDATA    ---       I2CM_MAP_ADDR
      02000A71H   PUBLIC    XDATA    BYTE      I2CM_DATA_LEN
      02000A61H   PUBLIC    XDATA    ---       I2CM_DATA_BUF
      02000A60H   PUBLIC    XDATA    BYTE      I2CM_16BIT_MODE
      00000062H   PUBLIC    DATA     WORD      g_wIrTemp
      0100A05BH   PUBLIC    CONST    ---       BaudRateTbl
      01009B6CH   PUBLIC    CODE     ---       HandleSpiSlave
      010086CDH   PUBLIC    CODE     ---       HandleI2cSlave
      01008BDBH   PUBLIC    CODE     ---       _ModIrReset
      00000021H.2 PUBLIC    BIT      BIT       ?PDSW_Control?BIT
      01009F85H   PUBLIC    CODE     ---       PDSW_Control
      01009593H   PUBLIC    CODE     ---       I2cMasterWrite
      01009678H   PUBLIC    CODE     ---       I2cMasterRead
      01009E79H   PUBLIC    CODE     ---       _InternSpiWriteByte
      01009DB0H   PUBLIC    CODE     ---       _InternSpiReadByte
      00000021H.2 PUBLIC    BIT      BIT       ?LED3_Switch?BIT
      01009F76H   PUBLIC    CODE     ---       LED3_Switch
      00000021H.2 PUBLIC    BIT      BIT       ?LED2_Switch?BIT
      01009F67H   PUBLIC    CODE     ---       LED2_Switch
      00000021H.2 PUBLIC    BIT      BIT       ?LED1_Switch?BIT
      01009F58H   PUBLIC    CODE     ---       LED1_Switch
      01008E6BH   PUBLIC    CODE     ---       _LED_Config
      01009FF7H   PUBLIC    CODE     ---       RefreshWdt
      01009826H   PUBLIC    CODE     ---       UartBaudRateInit
      00000080H   SFRSYM    DATA     BYTE      P0
      00000090H   SFRSYM    DATA     BYTE      P1
      000000A0H   SFRSYM    DATA     BYTE      P2
      000000B0H   SFRSYM    DATA     BYTE      P3
      000000D0H.6 SFRSYM    DATA     BIT       AC
      000000A8H.7 SFRSYM    DATA     BIT       EA
      000000A8H   SFRSYM    DATA     BYTE      IE
      000000D0H.1 SFRSYM    DATA     BIT       FL
      000000B8H   SFRSYM    DATA     BYTE      IP
      00000098H   SFRSYM    DATA     BIT       RI
      000000D0H.7 SFRSYM    DATA     BIT       CY
      00000098H.1 SFRSYM    DATA     BIT       TI
      00000080H.7 SFRSYM    DATA     BIT       IDLE
      00000081H   SFRSYM    DATA     BYTE      SP
      000000D0H.2 SFRSYM    DATA     BIT       OV
      000000FBH   SFRSYM    DATA     BYTE      PIDH
      000000FAH   SFRSYM    DATA     BYTE      PIDL
      000000F9H   SFRSYM    DATA     BYTE      VIDH
      00000088H.1 SFRSYM    DATA     BIT       M00
      00000088H.5 SFRSYM    DATA     BIT       M01
      00000088H.2 SFRSYM    DATA     BIT       M10
      00000088H.6 SFRSYM    DATA     BIT       M11
      000000F8H   SFRSYM    DATA     BYTE      VIDL
      000000BAH   SFRSYM    DATA     BYTE      S0RELH
      00000099H   SFRSYM    DATA     BYTE      SBUF
      00000087H   SFRSYM    DATA     BYTE      PCON
      000000AAH   SFRSYM    DATA     BYTE      S0RELL
      00000098H   SFRSYM    DATA     BYTE      SCON
      00000089H   SFRSYM    DATA     BYTE      TMOD
      00000088H   SFRSYM    DATA     BYTE      TCON
      00000088H.1 SFRSYM    DATA     BIT       GF0
      00000088H.1 SFRSYM    DATA     BIT       IE0
      00000088H.2 SFRSYM    DATA     BIT       GF1
      00000088H.3 SFRSYM    DATA     BIT       IE1
      000000F0H   SFRSYM    DATA     BYTE      B
      000000E0H   SFRSYM    DATA     BYTE      ACC
LX51 LINKER/LOCATER V4.47a                                                            03/27/2015  10:38:55  PAGE 62


      00000088H.3 SFRSYM    DATA     BIT       CT0
      00000088H   SFRSYM    DATA     BIT       STOP
      000000A8H.4 SFRSYM    DATA     BIT       ES0
      00000088H.7 SFRSYM    DATA     BIT       CT1
      000000A8H.6 SFRSYM    DATA     BIT       ES1
      000000A8H.1 SFRSYM    DATA     BIT       ET0
      000000A8H.3 SFRSYM    DATA     BIT       ET1
      00000088H.5 SFRSYM    DATA     BIT       TF0
      000000A8H.5 SFRSYM    DATA     BIT       ET2
      00000088H.7 SFRSYM    DATA     BIT       TF1
      00000098H.2 SFRSYM    DATA     BIT       RB8
      0000008CH   SFRSYM    DATA     BYTE      TH0
      000000A8H   SFRSYM    DATA     BIT       EX0
      0000008DH   SFRSYM    DATA     BYTE      TH1
      00000088H   SFRSYM    DATA     BIT       IT0
      000000A8H.2 SFRSYM    DATA     BIT       EX1
      00000098H.3 SFRSYM    DATA     BIT       TB8
      00000088H.2 SFRSYM    DATA     BIT       IT1
      000000D0H   SFRSYM    DATA     BIT       P
      00000098H.7 SFRSYM    DATA     BIT       SM0
      0000008AH   SFRSYM    DATA     BYTE      TL0
      00000098H.6 SFRSYM    DATA     BIT       SM1
      0000008BH   SFRSYM    DATA     BYTE      TL1
      00000098H.5 SFRSYM    DATA     BIT       SM2
      00000088H.4 SFRSYM    DATA     BIT       GATE0
      000000B8H.4 SFRSYM    DATA     BIT       PS0
      00000090H   SFRSYM    DATA     BIT       GATE1
      000000B8H.6 SFRSYM    DATA     BIT       PS1
      000000B8H.1 SFRSYM    DATA     BIT       PT0
      00000086H   SFRSYM    DATA     BYTE      WDTREL
      000000D0H.3 SFRSYM    DATA     BIT       RS0
      000000B8H.3 SFRSYM    DATA     BIT       PT1
      000000D0H.4 SFRSYM    DATA     BIT       RS1
      000000B8H.5 SFRSYM    DATA     BIT       PT2
      00000088H.4 SFRSYM    DATA     BIT       TR0
      00000088H.6 SFRSYM    DATA     BIT       TR1
      000000B8H   SFRSYM    DATA     BIT       PX0
      000000B8H.2 SFRSYM    DATA     BIT       PX1
      00000083H   SFRSYM    DATA     BYTE      DPH
      00000082H   SFRSYM    DATA     BYTE      DPL
      00000088H.6 SFRSYM    DATA     BIT       SMOD0
      00000098H.4 SFRSYM    DATA     BIT       REN
      000000D8H   SFRSYM    DATA     BYTE      ADCON
      000000FDH   SFRSYM    DATA     BYTE      EXCAH
      000000FCH   SFRSYM    DATA     BYTE      EXCAL
      0000008EH   SFRSYM    DATA     BYTE      CKCON
      000000FFH   SFRSYM    DATA     BYTE      EXCLH
      000000D0H.5 SFRSYM    DATA     BIT       F0
      000000FEH   SFRSYM    DATA     BYTE      EXCLL
      000000D0H   SFRSYM    DATA     BYTE      PSW

      01008B3CH   BLOCK     CODE     ---       LVL=0
      ---         BLOCKEND  ---      ---       LVL=0

      01009826H   BLOCK     CODE     ---       LVL=0
      01009826H   LINE      CODE     ---       #38
      01009826H   LINE      CODE     ---       #39
      01009826H   LINE      CODE     ---       #40
      01009829H   LINE      CODE     ---       #41
      0100982CH   LINE      CODE     ---       #42
      0100982FH   LINE      CODE     ---       #43
      0100984AH   LINE      CODE     ---       #44
      01009866H   LINE      CODE     ---       #45
      ---         BLOCKEND  ---      ---       LVL=0

LX51 LINKER/LOCATER V4.47a                                                            03/27/2015  10:38:55  PAGE 63


      01009FF7H   BLOCK     CODE     ---       LVL=0
      01009FF7H   LINE      CODE     ---       #47
      01009FF7H   LINE      CODE     ---       #48
      01009FF7H   LINE      CODE     ---       #50
      01009FFAH   LINE      CODE     ---       #51
      01009FFDH   LINE      CODE     ---       #52
      ---         BLOCKEND  ---      ---       LVL=0

      01008E6BH   BLOCK     CODE     ---       LVL=0
      00000007H   SYMBOL    DATA     BYTE      led1
      00000005H   SYMBOL    DATA     BYTE      led2
      00000003H   SYMBOL    DATA     BYTE      led3
      01008E6BH   LINE      CODE     ---       #54
      01008E6BH   LINE      CODE     ---       #55
      01008E6BH   LINE      CODE     ---       #57
      01008E71H   LINE      CODE     ---       #58
      01008E71H   LINE      CODE     ---       #59
      01008E75H   LINE      CODE     ---       #60
      01008E75H   LINE      CODE     ---       #61
      01008E80H   LINE      CODE     ---       #62
      01008E82H   LINE      CODE     ---       #64
      01008E82H   LINE      CODE     ---       #65
      01008E97H   LINE      CODE     ---       #66
      01008E97H   LINE      CODE     ---       #67
      01008E97H   LINE      CODE     ---       #69
      01008E9DH   LINE      CODE     ---       #70
      01008E9DH   LINE      CODE     ---       #71
      01008EA1H   LINE      CODE     ---       #72
      01008EA1H   LINE      CODE     ---       #73
      01008EA9H   LINE      CODE     ---       #74
      01008EABH   LINE      CODE     ---       #76
      01008EABH   LINE      CODE     ---       #77
      01008EBDH   LINE      CODE     ---       #78
      01008EBDH   LINE      CODE     ---       #79
      01008EBDH   LINE      CODE     ---       #81
      01008EC3H   LINE      CODE     ---       #82
      01008EC3H   LINE      CODE     ---       #83
      01008EC7H   LINE      CODE     ---       #84
      01008EC7H   LINE      CODE     ---       #85
      01008ECFH   LINE      CODE     ---       #86
      01008ED1H   LINE      CODE     ---       #88
      01008ED1H   LINE      CODE     ---       #89
      01008EE3H   LINE      CODE     ---       #90
      01008EE3H   LINE      CODE     ---       #91
      01008EE3H   LINE      CODE     ---       #92
      ---         BLOCKEND  ---      ---       LVL=0

      01009F58H   BLOCK     CODE     ---       LVL=0
      00000021H.2 SYMBOL    BIT      BIT       open
      01009F58H   LINE      CODE     ---       #94
      01009F58H   LINE      CODE     ---       #95
      01009F58H   LINE      CODE     ---       #96
      01009F5FH   LINE      CODE     ---       #97
      01009F63H   LINE      CODE     ---       #99
      01009F66H   LINE      CODE     ---       #100
      ---         BLOCKEND  ---      ---       LVL=0

      01009F67H   BLOCK     CODE     ---       LVL=0
      00000021H.2 SYMBOL    BIT      BIT       open
      01009F67H   LINE      CODE     ---       #102
      01009F67H   LINE      CODE     ---       #103
      01009F67H   LINE      CODE     ---       #104
      01009F6EH   LINE      CODE     ---       #105
      01009F72H   LINE      CODE     ---       #107
      01009F75H   LINE      CODE     ---       #108
LX51 LINKER/LOCATER V4.47a                                                            03/27/2015  10:38:55  PAGE 64


      ---         BLOCKEND  ---      ---       LVL=0

      01009F76H   BLOCK     CODE     ---       LVL=0
      00000021H.2 SYMBOL    BIT      BIT       open
      01009F76H   LINE      CODE     ---       #110
      01009F76H   LINE      CODE     ---       #111
      01009F76H   LINE      CODE     ---       #112
      01009F7DH   LINE      CODE     ---       #113
      01009F81H   LINE      CODE     ---       #115
      01009F84H   LINE      CODE     ---       #116
      ---         BLOCKEND  ---      ---       LVL=0

      01009DB0H   BLOCK     CODE     ---       LVL=0
      00000007H   SYMBOL    DATA     BYTE      addr
      01009DB0H   LINE      CODE     ---       #118
      01009DB0H   LINE      CODE     ---       #119
      01009DB0H   LINE      CODE     ---       #120
      01009DB7H   LINE      CODE     ---       #121
      01009DBEH   LINE      CODE     ---       #123
      01009DC5H   LINE      CODE     ---       #126
      01009DCAH   LINE      CODE     ---       #127
      ---         BLOCKEND  ---      ---       LVL=0

      01009E79H   BLOCK     CODE     ---       LVL=0
      00000007H   SYMBOL    DATA     BYTE      addr
      00000005H   SYMBOL    DATA     BYTE      value
      01009E79H   LINE      CODE     ---       #129
      01009E79H   LINE      CODE     ---       #130
      01009E79H   LINE      CODE     ---       #131
      01009E7EH   LINE      CODE     ---       #132
      01009E81H   LINE      CODE     ---       #133
      01009E88H   LINE      CODE     ---       #135
      01009E8FH   LINE      CODE     ---       #137
      ---         BLOCKEND  ---      ---       LVL=0

      01009678H   BLOCK     CODE     ---       LVL=0
      01009678H   BLOCK     CODE     NEAR LAB  LVL=1
      00000007H   SYMBOL    DATA     BYTE      index
      ---         BLOCKEND  ---      ---       LVL=1
      01009678H   LINE      CODE     ---       #139
      01009678H   LINE      CODE     ---       #140
      01009678H   LINE      CODE     ---       #143
      01009678H   LINE      CODE     ---       #145
      01009678H   LINE      CODE     ---       #147
      0100967DH   LINE      CODE     ---       #148
      01009680H   LINE      CODE     ---       #149
      01009680H   LINE      CODE     ---       #151
      01009685H   LINE      CODE     ---       #152
      01009685H   LINE      CODE     ---       #153
      01009685H   LINE      CODE     ---       #154
      0100968BH   LINE      CODE     ---       #155
      0100968DH   LINE      CODE     ---       #157
      0100968DH   LINE      CODE     ---       #158
      01009693H   LINE      CODE     ---       #159
      01009693H   LINE      CODE     ---       #162
      01009693H   LINE      CODE     ---       #163
      0100969AH   LINE      CODE     ---       #164
      0100969AH   LINE      CODE     ---       #165
      0100969EH   LINE      CODE     ---       #167
      0100969EH   LINE      CODE     ---       #168
      010096A5H   LINE      CODE     ---       #170
      010096B1H   LINE      CODE     ---       #171
      010096B1H   LINE      CODE     ---       #172
      010096BBH   LINE      CODE     ---       #173
      010096BEH   LINE      CODE     ---       #175
LX51 LINKER/LOCATER V4.47a                                                            03/27/2015  10:38:55  PAGE 65


      010096C3H   LINE      CODE     ---       #176
      ---         BLOCKEND  ---      ---       LVL=0

      01009593H   BLOCK     CODE     ---       LVL=0
      01009593H   BLOCK     CODE     NEAR LAB  LVL=1
      00000007H   SYMBOL    DATA     BYTE      index
      ---         BLOCKEND  ---      ---       LVL=1
      01009593H   LINE      CODE     ---       #178
      01009593H   LINE      CODE     ---       #179
      01009593H   LINE      CODE     ---       #182
      01009593H   LINE      CODE     ---       #184
      01009593H   LINE      CODE     ---       #186
      01009596H   LINE      CODE     ---       #187
      01009599H   LINE      CODE     ---       #189
      010095A5H   LINE      CODE     ---       #190
      010095A5H   LINE      CODE     ---       #191
      010095AFH   LINE      CODE     ---       #192
      010095B2H   LINE      CODE     ---       #194
      010095B2H   LINE      CODE     ---       #195
      010095B7H   LINE      CODE     ---       #196
      010095B7H   LINE      CODE     ---       #197
      010095B7H   LINE      CODE     ---       #198
      010095BDH   LINE      CODE     ---       #199
      010095BFH   LINE      CODE     ---       #201
      010095BFH   LINE      CODE     ---       #202
      010095C5H   LINE      CODE     ---       #203
      010095C5H   LINE      CODE     ---       #206
      010095C5H   LINE      CODE     ---       #207
      010095CCH   LINE      CODE     ---       #208
      010095CCH   LINE      CODE     ---       #209
      010095CFH   LINE      CODE     ---       #210
      010095D1H   LINE      CODE     ---       #211
      010095D1H   LINE      CODE     ---       #212
      010095D8H   LINE      CODE     ---       #214
      010095DFH   LINE      CODE     ---       #215
      ---         BLOCKEND  ---      ---       LVL=0

      01009F85H   BLOCK     CODE     ---       LVL=0
      00000021H.2 SYMBOL    BIT      BIT       en
      01009F85H   LINE      CODE     ---       #217
      01009F85H   LINE      CODE     ---       #218
      01009F85H   LINE      CODE     ---       #219
      01009F8CH   LINE      CODE     ---       #220
      01009F90H   LINE      CODE     ---       #222
      01009F93H   LINE      CODE     ---       #223
      ---         BLOCKEND  ---      ---       LVL=0

      01008BDBH   BLOCK     CODE     ---       LVL=0
      00000005H   SYMBOL    DATA     BYTE      type
      01008BDBH   LINE      CODE     ---       #225
      01008BDDH   LINE      CODE     ---       #226
      01008BDDH   LINE      CODE     ---       #227
      01008BE4H   LINE      CODE     ---       #228
      01008BEBH   LINE      CODE     ---       #229
      01008BF0H   LINE      CODE     ---       #231
      01008BF8H   LINE      CODE     ---       #232
      01008BF8H   LINE      CODE     ---       #233
      01008BF8H   LINE      CODE     ---       #234
      01008BFBH   LINE      CODE     ---       #235
      01008BFDH   LINE      CODE     ---       #236
      01008BFDH   LINE      CODE     ---       #237
      01008C03H   LINE      CODE     ---       #238
      01008C05H   LINE      CODE     ---       #239
      01008C09H   LINE      CODE     ---       #240
      01008C0BH   LINE      CODE     ---       #241
LX51 LINKER/LOCATER V4.47a                                                            03/27/2015  10:38:55  PAGE 66


      01008C0BH   LINE      CODE     ---       #242
      01008C0BH   LINE      CODE     ---       #243
      01008C11H   LINE      CODE     ---       #244
      01008C13H   LINE      CODE     ---       #245
      01008C17H   LINE      CODE     ---       #246
      01008C18H   LINE      CODE     ---       #247
      01008C1AH   LINE      CODE     ---       #249
      01008C1AH   LINE      CODE     ---       #250
      01008C1DH   LINE      CODE     ---       #251
      01008C1FH   LINE      CODE     ---       #252
      01008C1FH   LINE      CODE     ---       #253
      01008C25H   LINE      CODE     ---       #254
      01008C27H   LINE      CODE     ---       #255
      01008C2BH   LINE      CODE     ---       #256
      01008C2DH   LINE      CODE     ---       #257
      01008C2DH   LINE      CODE     ---       #258
      01008C2DH   LINE      CODE     ---       #259
      01008C33H   LINE      CODE     ---       #260
      01008C37H   LINE      CODE     ---       #261
      01008C3BH   LINE      CODE     ---       #262
      01008C41H   LINE      CODE     ---       #263
      01008C42H   LINE      CODE     ---       #265
      01008C42H   LINE      CODE     ---       #267
      01008C45H   LINE      CODE     ---       #268
      01008C48H   LINE      CODE     ---       #269
      01008C48H   LINE      CODE     ---       #270
      01008C4EH   LINE      CODE     ---       #271
      01008C52H   LINE      CODE     ---       #272
      01008C55H   LINE      CODE     ---       #273
      01008C5AH   LINE      CODE     ---       #274
      01008C5AH   LINE      CODE     ---       #275
      01008C5AH   LINE      CODE     ---       #276
      01008C60H   LINE      CODE     ---       #277
      01008C64H   LINE      CODE     ---       #278
      01008C68H   LINE      CODE     ---       #279
      01008C6DH   LINE      CODE     ---       #280
      01008C71H   LINE      CODE     ---       #281
      01008C74H   LINE      CODE     ---       #282
      01008C78H   LINE      CODE     ---       #283
      01008C78H   LINE      CODE     ---       #284
      01008C78H   LINE      CODE     ---       #285
      ---         BLOCKEND  ---      ---       LVL=0

      010086CDH   BLOCK     CODE     ---       LVL=0
      010086CDH   BLOCK     CODE     NEAR LAB  LVL=1
      00000064H   SYMBOL    DATA     BYTE      temp
      00000001H   SYMBOL    DATA     BYTE      index
      00000004H   SYMBOL    DATA     ---       pXdata
      ---         BLOCKEND  ---      ---       LVL=1
      010086CDH   LINE      CODE     ---       #287
      010086CDH   LINE      CODE     ---       #288
      010086CDH   LINE      CODE     ---       #293
      010086D7H   LINE      CODE     ---       #294
      010086D7H   LINE      CODE     ---       #295
      010086EDH   LINE      CODE     ---       #296
      010086F1H   LINE      CODE     ---       #297
      010086F1H   LINE      CODE     ---       #298
      010086F1H   LINE      CODE     ---       #299
      010086F3H   LINE      CODE     ---       #300
      010086F3H   LINE      CODE     ---       #301
      010086FAH   LINE      CODE     ---       #302
      010086FAH   LINE      CODE     ---       #303
      01008701H   LINE      CODE     ---       #304
      01008706H   LINE      CODE     ---       #305
      01008706H   LINE      CODE     ---       #306
LX51 LINKER/LOCATER V4.47a                                                            03/27/2015  10:38:55  PAGE 67


      01008709H   LINE      CODE     ---       #307
      0100870BH   LINE      CODE     ---       #308
      0100870BH   LINE      CODE     ---       #309
      01008712H   LINE      CODE     ---       #311
      0100871EH   LINE      CODE     ---       #312
      01008726H   LINE      CODE     ---       #313
      01008726H   LINE      CODE     ---       #314
      0100873DH   LINE      CODE     ---       #315
      01008740H   LINE      CODE     ---       #317
      01008743H   LINE      CODE     ---       #319
      01008749H   LINE      CODE     ---       #320
      01008749H   LINE      CODE     ---       #321
      0100874BH   LINE      CODE     ---       #322
      0100874BH   LINE      CODE     ---       #323
      0100874BH   LINE      CODE     ---       #325
      01008752H   LINE      CODE     ---       #326
      01008754H   LINE      CODE     ---       #328
      0100875BH   LINE      CODE     ---       #329
      0100875BH   LINE      CODE     ---       #330
      0100876CH   LINE      CODE     ---       #331
      01008777H   LINE      CODE     ---       #332
      0100877FH   LINE      CODE     ---       #333
      0100877FH   LINE      CODE     ---       #334
      0100878EH   LINE      CODE     ---       #335
      01008791H   LINE      CODE     ---       #337
      01008794H   LINE      CODE     ---       #338
      0100879BH   LINE      CODE     ---       #339
      0100879BH   LINE      CODE     ---       #341
      0100879CH   LINE      CODE     ---       #342
      ---         BLOCKEND  ---      ---       LVL=0

      01009B6CH   BLOCK     CODE     ---       LVL=0
      01009B6CH   BLOCK     CODE     NEAR LAB  LVL=1
      00000007H   SYMBOL    DATA     BYTE      temp
      00000004H   SYMBOL    DATA     ---       pXdata
      ---         BLOCKEND  ---      ---       LVL=1
      01009B6CH   LINE      CODE     ---       #344
      01009B6CH   LINE      CODE     ---       #345
      01009B6CH   LINE      CODE     ---       #349
      01009B71H   LINE      CODE     ---       #350
      01009B78H   LINE      CODE     ---       #352
      01009B7CH   LINE      CODE     ---       #353
      01009B7CH   LINE      CODE     ---       #354
      01009B85H   LINE      CODE     ---       #355
      01009B87H   LINE      CODE     ---       #357
      01009B87H   LINE      CODE     ---       #358
      01009B90H   LINE      CODE     ---       #359
      01009B90H   LINE      CODE     ---       #361
      01009B93H   LINE      CODE     ---       #362
      ---         BLOCKEND  ---      ---       LVL=0

      ---         MODULE    ---      ---       AUDIO_LIB
      0100A097H   PUBLIC    CONST    ---       g_bSamplingRateTbl
      00000021H.2 PUBLIC    BIT      BIT       ?RecordMonoEnable?BIT
      01009FC1H   PUBLIC    CODE     ---       RecordMonoEnable
      00000021H.2 PUBLIC    BIT      BIT       ?SetRecordBitResolution?BIT
      01009BE4H   PUBLIC    CODE     ---       SetRecordBitResolution
      01009867H   PUBLIC    CODE     ---       _SetRecordSampleRate
      00000021H.2 PUBLIC    BIT      BIT       ?SetPlayBitResolution?BIT
      01009BBCH   PUBLIC    CODE     ---       SetPlayBitResolution
      01009B94H   PUBLIC    CODE     ---       _SetPlaySampleRate
      010099F4H   PUBLIC    CODE     ---       _SelectRecPath
      00000021H.2 PUBLIC    BIT      BIT       ?RecordfromSPDIF?BIT
      01009FB2H   PUBLIC    CODE     ---       RecordfromSPDIF
      00000021H.2 PUBLIC    BIT      BIT       ?AApathVolControl?BIT
LX51 LINKER/LOCATER V4.47a                                                            03/27/2015  10:38:55  PAGE 68


      00000054H   PUBLIC    DATA     BYTE      ?AApathVolControl?BYTE
      0100922AH   PUBLIC    CODE     ---       AApathVolControl
      00000021H.2 PUBLIC    BIT      BIT       ?RecordVolControl?BIT
      00000054H   PUBLIC    DATA     BYTE      ?RecordVolControl?BYTE
      01008F5BH   PUBLIC    CODE     ---       RecordVolControl
      00000021H.2 PUBLIC    BIT      BIT       ?PlaybackVolControl?BIT
      00000054H   PUBLIC    DATA     BYTE      ?PlaybackVolControl?BYTE
      010096C4H   PUBLIC    CODE     ---       PlaybackVolControl
      00000021H.2 PUBLIC    BIT      BIT       ?PlaybackMinVolHandle?BIT
      00000054H   PUBLIC    DATA     BYTE      ?PlaybackMinVolHandle?BYTE
      01009C7BH   PUBLIC    CODE     ---       PlaybackMinVolHandle
      00000021H.2 PUBLIC    BIT      BIT       ?LineInAaMuteControl?BIT
      01009DE5H   PUBLIC    CODE     ---       LineInAaMuteControl
      00000021H.2 PUBLIC    BIT      BIT       ?MicInAaMuteControl?BIT
      01009DCBH   PUBLIC    CODE     ---       MicInAaMuteControl
      00000021H.2 PUBLIC    BIT      BIT       ?RecordMuteControl?BIT
      010099BFH   PUBLIC    CODE     ---       RecordMuteControl
      00000021H.2 PUBLIC    BIT      BIT       ?PlaybackMuteControl?BIT
      0100998AH   PUBLIC    CODE     ---       PlaybackMuteControl
      00000021H.2 PUBLIC    BIT      BIT       ?SPDIFInMuteSwitch?BIT
      01009FA3H   PUBLIC    CODE     ---       SPDIFInMuteSwitch
      00000021H.2 PUBLIC    BIT      BIT       ?SPDIFOutMuteSwitch?BIT
      01009F94H   PUBLIC    CODE     ---       SPDIFOutMuteSwitch
      00000080H   SFRSYM    DATA     BYTE      P0
      00000090H   SFRSYM    DATA     BYTE      P1
      000000A0H   SFRSYM    DATA     BYTE      P2
      000000B0H   SFRSYM    DATA     BYTE      P3
      000000D0H.6 SFRSYM    DATA     BIT       AC
      000000A8H.7 SFRSYM    DATA     BIT       EA
      000000A8H   SFRSYM    DATA     BYTE      IE
      000000D0H.1 SFRSYM    DATA     BIT       FL
      000000B8H   SFRSYM    DATA     BYTE      IP
      00000098H   SFRSYM    DATA     BIT       RI
      000000D0H.7 SFRSYM    DATA     BIT       CY
      00000098H.1 SFRSYM    DATA     BIT       TI
      00000080H.7 SFRSYM    DATA     BIT       IDLE
      00000081H   SFRSYM    DATA     BYTE      SP
      000000D0H.2 SFRSYM    DATA     BIT       OV
      000000FBH   SFRSYM    DATA     BYTE      PIDH
      000000FAH   SFRSYM    DATA     BYTE      PIDL
      000000F9H   SFRSYM    DATA     BYTE      VIDH
      00000088H.1 SFRSYM    DATA     BIT       M00
      00000088H.5 SFRSYM    DATA     BIT       M01
      00000088H.2 SFRSYM    DATA     BIT       M10
      00000088H.6 SFRSYM    DATA     BIT       M11
      000000F8H   SFRSYM    DATA     BYTE      VIDL
      000000BAH   SFRSYM    DATA     BYTE      S0RELH
      00000099H   SFRSYM    DATA     BYTE      SBUF
      00000087H   SFRSYM    DATA     BYTE      PCON
      000000AAH   SFRSYM    DATA     BYTE      S0RELL
      00000098H   SFRSYM    DATA     BYTE      SCON
      00000089H   SFRSYM    DATA     BYTE      TMOD
      00000088H   SFRSYM    DATA     BYTE      TCON
      00000088H.1 SFRSYM    DATA     BIT       GF0
      00000088H.1 SFRSYM    DATA     BIT       IE0
      00000088H.2 SFRSYM    DATA     BIT       GF1
      00000088H.3 SFRSYM    DATA     BIT       IE1
      000000F0H   SFRSYM    DATA     BYTE      B
      000000E0H   SFRSYM    DATA     BYTE      ACC
      00000088H.3 SFRSYM    DATA     BIT       CT0
      00000088H   SFRSYM    DATA     BIT       STOP
      000000A8H.4 SFRSYM    DATA     BIT       ES0
      00000088H.7 SFRSYM    DATA     BIT       CT1
      000000A8H.6 SFRSYM    DATA     BIT       ES1
      000000A8H.1 SFRSYM    DATA     BIT       ET0
LX51 LINKER/LOCATER V4.47a                                                            03/27/2015  10:38:55  PAGE 69


      000000A8H.3 SFRSYM    DATA     BIT       ET1
      00000088H.5 SFRSYM    DATA     BIT       TF0
      000000A8H.5 SFRSYM    DATA     BIT       ET2
      00000088H.7 SFRSYM    DATA     BIT       TF1
      00000098H.2 SFRSYM    DATA     BIT       RB8
      0000008CH   SFRSYM    DATA     BYTE      TH0
      000000A8H   SFRSYM    DATA     BIT       EX0
      0000008DH   SFRSYM    DATA     BYTE      TH1
      00000088H   SFRSYM    DATA     BIT       IT0
      000000A8H.2 SFRSYM    DATA     BIT       EX1
      00000098H.3 SFRSYM    DATA     BIT       TB8
      00000088H.2 SFRSYM    DATA     BIT       IT1
      000000D0H   SFRSYM    DATA     BIT       P
      00000098H.7 SFRSYM    DATA     BIT       SM0
      0000008AH   SFRSYM    DATA     BYTE      TL0
      00000098H.6 SFRSYM    DATA     BIT       SM1
      0000008BH   SFRSYM    DATA     BYTE      TL1
      00000098H.5 SFRSYM    DATA     BIT       SM2
      00000088H.4 SFRSYM    DATA     BIT       GATE0
      000000B8H.4 SFRSYM    DATA     BIT       PS0
      00000090H   SFRSYM    DATA     BIT       GATE1
      000000B8H.6 SFRSYM    DATA     BIT       PS1
      000000B8H.1 SFRSYM    DATA     BIT       PT0
      00000086H   SFRSYM    DATA     BYTE      WDTREL
      000000D0H.3 SFRSYM    DATA     BIT       RS0
      000000B8H.3 SFRSYM    DATA     BIT       PT1
      000000D0H.4 SFRSYM    DATA     BIT       RS1
      000000B8H.5 SFRSYM    DATA     BIT       PT2
      00000088H.4 SFRSYM    DATA     BIT       TR0
      00000088H.6 SFRSYM    DATA     BIT       TR1
      000000B8H   SFRSYM    DATA     BIT       PX0
      000000B8H.2 SFRSYM    DATA     BIT       PX1
      00000083H   SFRSYM    DATA     BYTE      DPH
      00000082H   SFRSYM    DATA     BYTE      DPL
      00000088H.6 SFRSYM    DATA     BIT       SMOD0
      00000098H.4 SFRSYM    DATA     BIT       REN
      000000D8H   SFRSYM    DATA     BYTE      ADCON
      000000FDH   SFRSYM    DATA     BYTE      EXCAH
      000000FCH   SFRSYM    DATA     BYTE      EXCAL
      0000008EH   SFRSYM    DATA     BYTE      CKCON
      000000FFH   SFRSYM    DATA     BYTE      EXCLH
      000000D0H.5 SFRSYM    DATA     BIT       F0
      000000FEH   SFRSYM    DATA     BYTE      EXCLL
      000000D0H   SFRSYM    DATA     BYTE      PSW

      01009B1AH   BLOCK     CODE     ---       LVL=0
      ---         BLOCKEND  ---      ---       LVL=0

      01009F94H   BLOCK     CODE     ---       LVL=0
      00000021H.2 SYMBOL    BIT      BIT       mute
      01009F94H   LINE      CODE     ---       #33
      01009F94H   LINE      CODE     ---       #34
      01009F94H   LINE      CODE     ---       #35
      01009F9BH   LINE      CODE     ---       #36
      01009F9FH   LINE      CODE     ---       #38
      01009FA2H   LINE      CODE     ---       #39
      ---         BLOCKEND  ---      ---       LVL=0

      01009FA3H   BLOCK     CODE     ---       LVL=0
      00000021H.2 SYMBOL    BIT      BIT       mute
      01009FA3H   LINE      CODE     ---       #41
      01009FA3H   LINE      CODE     ---       #42
      01009FA3H   LINE      CODE     ---       #43
      01009FAAH   LINE      CODE     ---       #44
      01009FAEH   LINE      CODE     ---       #46
LX51 LINKER/LOCATER V4.47a                                                            03/27/2015  10:38:55  PAGE 70


      01009FB1H   LINE      CODE     ---       #47
      ---         BLOCKEND  ---      ---       LVL=0

      0100998AH   BLOCK     CODE     ---       LVL=0
      00000021H.2 SYMBOL    BIT      BIT       analog
      00000021H.3 SYMBOL    BIT      BIT       mute
      0100998AH   LINE      CODE     ---       #49
      0100998AH   LINE      CODE     ---       #50
      0100998AH   LINE      CODE     ---       #51
      0100998DH   LINE      CODE     ---       #52
      0100998DH   LINE      CODE     ---       #53
      01009992H   LINE      CODE     ---       #54
      01009992H   LINE      CODE     ---       #55
      01009998H   LINE      CODE     ---       #57
      0100999AH   LINE      CODE     ---       #59
      0100999AH   LINE      CODE     ---       #60
      010099A6H   LINE      CODE     ---       #62
      010099A6H   LINE      CODE     ---       #63
      010099A6H   LINE      CODE     ---       #65
      010099A6H   LINE      CODE     ---       #66
      010099ADH   LINE      CODE     ---       #67
      010099ADH   LINE      CODE     ---       #68
      010099B0H   LINE      CODE     ---       #69
      010099B5H   LINE      CODE     ---       #70
      010099B6H   LINE      CODE     ---       #72
      010099B6H   LINE      CODE     ---       #73
      010099B9H   LINE      CODE     ---       #74
      010099BEH   LINE      CODE     ---       #75
      010099BEH   LINE      CODE     ---       #76
      010099BEH   LINE      CODE     ---       #77
      ---         BLOCKEND  ---      ---       LVL=0

      010099BFH   BLOCK     CODE     ---       LVL=0
      00000021H.2 SYMBOL    BIT      BIT       analog
      00000021H.3 SYMBOL    BIT      BIT       mute
      010099BFH   LINE      CODE     ---       #79
      010099BFH   LINE      CODE     ---       #80
      010099BFH   LINE      CODE     ---       #81
      010099C2H   LINE      CODE     ---       #82
      010099C2H   LINE      CODE     ---       #83
      010099C7H   LINE      CODE     ---       #84
      010099C7H   LINE      CODE     ---       #85
      010099CDH   LINE      CODE     ---       #87
      010099CFH   LINE      CODE     ---       #89
      010099CFH   LINE      CODE     ---       #90
      010099DBH   LINE      CODE     ---       #92
      010099DBH   LINE      CODE     ---       #93
      010099DBH   LINE      CODE     ---       #95
      010099DBH   LINE      CODE     ---       #96
      010099E2H   LINE      CODE     ---       #97
      010099E2H   LINE      CODE     ---       #98
      010099E5H   LINE      CODE     ---       #99
      010099EAH   LINE      CODE     ---       #100
      010099EBH   LINE      CODE     ---       #102
      010099EBH   LINE      CODE     ---       #103
      010099EEH   LINE      CODE     ---       #104
      010099F3H   LINE      CODE     ---       #105
      010099F3H   LINE      CODE     ---       #106
      010099F3H   LINE      CODE     ---       #107
      ---         BLOCKEND  ---      ---       LVL=0

      01009DCBH   BLOCK     CODE     ---       LVL=0
      00000021H.2 SYMBOL    BIT      BIT       mute
      01009DCBH   LINE      CODE     ---       #109
      01009DCBH   LINE      CODE     ---       #110
LX51 LINKER/LOCATER V4.47a                                                            03/27/2015  10:38:55  PAGE 71


      01009DCBH   LINE      CODE     ---       #111
      01009DD0H   LINE      CODE     ---       #112
      01009DD0H   LINE      CODE     ---       #113
      01009DD6H   LINE      CODE     ---       #115
      01009DD8H   LINE      CODE     ---       #117
      01009DD8H   LINE      CODE     ---       #118
      01009DE4H   LINE      CODE     ---       #120
      01009DE4H   LINE      CODE     ---       #121
      ---         BLOCKEND  ---      ---       LVL=0

      01009DE5H   BLOCK     CODE     ---       LVL=0
      00000021H.2 SYMBOL    BIT      BIT       mute
      01009DE5H   LINE      CODE     ---       #123
      01009DE5H   LINE      CODE     ---       #124
      01009DE5H   LINE      CODE     ---       #125
      01009DEAH   LINE      CODE     ---       #126
      01009DEAH   LINE      CODE     ---       #127
      01009DF0H   LINE      CODE     ---       #129
      01009DF2H   LINE      CODE     ---       #131
      01009DF2H   LINE      CODE     ---       #132
      01009DFEH   LINE      CODE     ---       #134
      01009DFEH   LINE      CODE     ---       #135
      ---         BLOCKEND  ---      ---       LVL=0

      01009C7BH   BLOCK     CODE     ---       LVL=0
      00000021H.2 SYMBOL    BIT      BIT       analog
      00000054H   SYMBOL    DATA     BYTE      ch
      01009C7BH   LINE      CODE     ---       #137
      01009C7BH   LINE      CODE     ---       #138
      01009C7BH   LINE      CODE     ---       #139
      01009C7EH   LINE      CODE     ---       #140
      01009C7EH   LINE      CODE     ---       #141
      01009C92H   LINE      CODE     ---       #143
      01009C92H   LINE      CODE     ---       #145
      01009C92H   LINE      CODE     ---       #146
      01009C9DH   LINE      CODE     ---       #147
      01009C9DH   LINE      CODE     ---       #148
      ---         BLOCKEND  ---      ---       LVL=0

      010096C4H   BLOCK     CODE     ---       LVL=0
      00000021H.2 SYMBOL    BIT      BIT       analog
      00000054H   SYMBOL    DATA     BYTE      ch
      00000055H   SYMBOL    DATA     BYTE      vol
      010096C4H   BLOCK     CODE     NEAR LAB  LVL=1
      00000056H   SYMBOL    DATA     BYTE      temp
      ---         BLOCKEND  ---      ---       LVL=1
      010096C4H   LINE      CODE     ---       #150
      010096C4H   LINE      CODE     ---       #151
      010096C4H   LINE      CODE     ---       #154
      010096C7H   LINE      CODE     ---       #155
      010096C7H   LINE      CODE     ---       #156
      010096CFH   LINE      CODE     ---       #157
      010096E9H   LINE      CODE     ---       #160
      010096E9H   LINE      CODE     ---       #162
      010096E9H   LINE      CODE     ---       #163
      010096FDH   LINE      CODE     ---       #164
      0100970FH   LINE      CODE     ---       #165
      0100970FH   LINE      CODE     ---       #166
      ---         BLOCKEND  ---      ---       LVL=0

      01008F5BH   BLOCK     CODE     ---       LVL=0
      00000021H.2 SYMBOL    BIT      BIT       analog
      00000021H.3 SYMBOL    BIT      BIT       mic
      00000054H   SYMBOL    DATA     BYTE      ch
      00000055H   SYMBOL    DATA     BYTE      vol
LX51 LINKER/LOCATER V4.47a                                                            03/27/2015  10:38:55  PAGE 72


      01008F5BH   BLOCK     CODE     NEAR LAB  LVL=1
      00000056H   SYMBOL    DATA     BYTE      temp
      ---         BLOCKEND  ---      ---       LVL=1
      01008F5BH   LINE      CODE     ---       #168
      01008F5BH   LINE      CODE     ---       #169
      01008F5BH   LINE      CODE     ---       #172
      01008F5EH   LINE      CODE     ---       #173
      01008F5EH   LINE      CODE     ---       #174
      01008F61H   LINE      CODE     ---       #175
      01008F61H   LINE      CODE     ---       #176
      01008F76H   LINE      CODE     ---       #177
      01008F78H   LINE      CODE     ---       #179
      01008F78H   LINE      CODE     ---       #180
      01008F8DH   LINE      CODE     ---       #181
      01008F8DH   LINE      CODE     ---       #183
      01008FA7H   LINE      CODE     ---       #185
      01008FA7H   LINE      CODE     ---       #187
      01008FA7H   LINE      CODE     ---       #188
      01008FBDH   LINE      CODE     ---       #189
      01008FCFH   LINE      CODE     ---       #190
      01008FCFH   LINE      CODE     ---       #191
      ---         BLOCKEND  ---      ---       LVL=0

      0100922AH   BLOCK     CODE     ---       LVL=0
      00000021H.2 SYMBOL    BIT      BIT       mic
      00000054H   SYMBOL    DATA     BYTE      ch
      00000055H   SYMBOL    DATA     BYTE      vol
      0100922AH   BLOCK     CODE     NEAR LAB  LVL=1
      00000056H   SYMBOL    DATA     BYTE      temp
      ---         BLOCKEND  ---      ---       LVL=1
      0100922AH   LINE      CODE     ---       #193
      0100922AH   LINE      CODE     ---       #194
      0100922AH   LINE      CODE     ---       #197
      0100922DH   LINE      CODE     ---       #198
      0100922DH   LINE      CODE     ---       #199
      01009246H   LINE      CODE     ---       #200
      0100924FH   LINE      CODE     ---       #202
      01009251H   LINE      CODE     ---       #204
      01009251H   LINE      CODE     ---       #205
      0100926AH   LINE      CODE     ---       #206
      01009277H   LINE      CODE     ---       #208
      01009277H   LINE      CODE     ---       #210
      ---         BLOCKEND  ---      ---       LVL=0

      01009FB2H   BLOCK     CODE     ---       LVL=0
      00000021H.2 SYMBOL    BIT      BIT       en
      01009FB2H   LINE      CODE     ---       #212
      01009FB2H   LINE      CODE     ---       #213
      01009FB2H   LINE      CODE     ---       #214
      01009FB9H   LINE      CODE     ---       #215
      01009FBDH   LINE      CODE     ---       #217
      01009FC0H   LINE      CODE     ---       #218
      ---         BLOCKEND  ---      ---       LVL=0

      010099F4H   BLOCK     CODE     ---       LVL=0
      00000007H   SYMBOL    DATA     BYTE      source
      010099F4H   LINE      CODE     ---       #220
      010099F4H   LINE      CODE     ---       #221
      010099F4H   LINE      CODE     ---       #222
      01009A01H   LINE      CODE     ---       #223
      01009A01H   LINE      CODE     ---       #224
      01009A01H   LINE      CODE     ---       #225
      01009A08H   LINE      CODE     ---       #227
      01009A0AH   LINE      CODE     ---       #229
      01009A0AH   LINE      CODE     ---       #230
LX51 LINKER/LOCATER V4.47a                                                            03/27/2015  10:38:55  PAGE 73


      01009A0FH   LINE      CODE     ---       #232
      01009A11H   LINE      CODE     ---       #234
      01009A11H   LINE      CODE     ---       #235
      01009A21H   LINE      CODE     ---       #237
      01009A21H   LINE      CODE     ---       #239
      01009A21H   LINE      CODE     ---       #240
      01009A21H   LINE      CODE     ---       #241
      01009A21H   LINE      CODE     ---       #242
      ---         BLOCKEND  ---      ---       LVL=0

      01009B94H   BLOCK     CODE     ---       LVL=0
      00000004H   SYMBOL    DATA     BYTE      sr
      01009B94H   LINE      CODE     ---       #244
      01009B96H   LINE      CODE     ---       #245
      01009B96H   LINE      CODE     ---       #246
      01009BA2H   LINE      CODE     ---       #248
      01009BA7H   LINE      CODE     ---       #249
      01009BA7H   LINE      CODE     ---       #250
      01009BADH   LINE      CODE     ---       #252
      01009BAFH   LINE      CODE     ---       #254
      01009BAFH   LINE      CODE     ---       #255
      01009BBBH   LINE      CODE     ---       #257
      01009BBBH   LINE      CODE     ---       #258
      ---         BLOCKEND  ---      ---       LVL=0

      01009BBCH   BLOCK     CODE     ---       LVL=0
      00000021H.2 SYMBOL    BIT      BIT       bit16
      01009BBCH   LINE      CODE     ---       #260
      01009BBCH   LINE      CODE     ---       #261
      01009BBCH   LINE      CODE     ---       #262
      01009BC3H   LINE      CODE     ---       #263
      01009BC3H   LINE      CODE     ---       #264
      01009BC6H   LINE      CODE     ---       #266
      01009BCEH   LINE      CODE     ---       #268
      01009BD0H   LINE      CODE     ---       #270
      01009BD0H   LINE      CODE     ---       #271
      01009BD3H   LINE      CODE     ---       #273
      01009BE3H   LINE      CODE     ---       #275
      01009BE3H   LINE      CODE     ---       #276
      ---         BLOCKEND  ---      ---       LVL=0

      01009867H   BLOCK     CODE     ---       LVL=0
      00000054H   SYMBOL    DATA     BYTE      sr
      01009867H   LINE      CODE     ---       #278
      01009869H   LINE      CODE     ---       #279
      01009869H   LINE      CODE     ---       #280
      01009879H   LINE      CODE     ---       #282
      01009880H   LINE      CODE     ---       #283
      01009880H   LINE      CODE     ---       #284
      01009886H   LINE      CODE     ---       #286
      01009888H   LINE      CODE     ---       #288
      01009888H   LINE      CODE     ---       #289
      01009894H   LINE      CODE     ---       #291
      01009894H   LINE      CODE     ---       #294
      0100989BH   LINE      CODE     ---       #295
      0100989BH   LINE      CODE     ---       #296
      0100989DH   LINE      CODE     ---       #297
      0100989FH   LINE      CODE     ---       #299
      0100989FH   LINE      CODE     ---       #300
      010098A6H   LINE      CODE     ---       #301
      010098A6H   LINE      CODE     ---       #302
      ---         BLOCKEND  ---      ---       LVL=0

      01009BE4H   BLOCK     CODE     ---       LVL=0
      00000021H.2 SYMBOL    BIT      BIT       bit16
LX51 LINKER/LOCATER V4.47a                                                            03/27/2015  10:38:55  PAGE 74


      01009BE4H   LINE      CODE     ---       #304
      01009BE4H   LINE      CODE     ---       #305
      01009BE4H   LINE      CODE     ---       #306
      01009BEBH   LINE      CODE     ---       #307
      01009BEBH   LINE      CODE     ---       #309
      01009BEEH   LINE      CODE     ---       #311
      01009BF6H   LINE      CODE     ---       #313
      01009BF8H   LINE      CODE     ---       #315
      01009BF8H   LINE      CODE     ---       #316
      01009BFBH   LINE      CODE     ---       #318
      01009C0BH   LINE      CODE     ---       #320
      01009C0BH   LINE      CODE     ---       #322
      ---         BLOCKEND  ---      ---       LVL=0

      01009FC1H   BLOCK     CODE     ---       LVL=0
      00000021H.2 SYMBOL    BIT      BIT       mono
      01009FC1H   LINE      CODE     ---       #324
      01009FC1H   LINE      CODE     ---       #325
      01009FC1H   LINE      CODE     ---       #326
      01009FC8H   LINE      CODE     ---       #327
      01009FCCH   LINE      CODE     ---       #329
      01009FCFH   LINE      CODE     ---       #330
      ---         BLOCKEND  ---      ---       LVL=0

      ---         MODULE    ---      ---       IO_LIB
      00000021H.2 PUBLIC    BIT      BIT       ?_GPIO_Init?BIT
      01009954H   PUBLIC    CODE     ---       _GPIO_Init
      00000020H.6 PUBLIC    BIT      BIT       ?_GpioPuPdSetting?BIT
      01009C33H   PUBLIC    CODE     ---       _GpioPuPdSetting
      00000080H   SFRSYM    DATA     BYTE      P0
      00000090H   SFRSYM    DATA     BYTE      P1
      000000A0H   SFRSYM    DATA     BYTE      P2
      000000B0H   SFRSYM    DATA     BYTE      P3
      000000D0H.6 SFRSYM    DATA     BIT       AC
      000000A8H.7 SFRSYM    DATA     BIT       EA
      000000A8H   SFRSYM    DATA     BYTE      IE
      000000D0H.1 SFRSYM    DATA     BIT       FL
      000000B8H   SFRSYM    DATA     BYTE      IP
      00000098H   SFRSYM    DATA     BIT       RI
      000000D0H.7 SFRSYM    DATA     BIT       CY
      00000098H.1 SFRSYM    DATA     BIT       TI
      00000080H.7 SFRSYM    DATA     BIT       IDLE
      00000081H   SFRSYM    DATA     BYTE      SP
      000000D0H.2 SFRSYM    DATA     BIT       OV
      000000FBH   SFRSYM    DATA     BYTE      PIDH
      000000FAH   SFRSYM    DATA     BYTE      PIDL
      000000F9H   SFRSYM    DATA     BYTE      VIDH
      00000088H.1 SFRSYM    DATA     BIT       M00
      00000088H.5 SFRSYM    DATA     BIT       M01
      00000088H.2 SFRSYM    DATA     BIT       M10
      00000088H.6 SFRSYM    DATA     BIT       M11
      000000F8H   SFRSYM    DATA     BYTE      VIDL
      000000BAH   SFRSYM    DATA     BYTE      S0RELH
      00000099H   SFRSYM    DATA     BYTE      SBUF
      00000087H   SFRSYM    DATA     BYTE      PCON
      000000AAH   SFRSYM    DATA     BYTE      S0RELL
      00000098H   SFRSYM    DATA     BYTE      SCON
      00000089H   SFRSYM    DATA     BYTE      TMOD
      00000088H   SFRSYM    DATA     BYTE      TCON
      00000088H.1 SFRSYM    DATA     BIT       GF0
      00000088H.1 SFRSYM    DATA     BIT       IE0
      00000088H.2 SFRSYM    DATA     BIT       GF1
      00000088H.3 SFRSYM    DATA     BIT       IE1
      000000F0H   SFRSYM    DATA     BYTE      B
      000000E0H   SFRSYM    DATA     BYTE      ACC
LX51 LINKER/LOCATER V4.47a                                                            03/27/2015  10:38:55  PAGE 75


      00000088H.3 SFRSYM    DATA     BIT       CT0
      00000088H   SFRSYM    DATA     BIT       STOP
      000000A8H.4 SFRSYM    DATA     BIT       ES0
      00000088H.7 SFRSYM    DATA     BIT       CT1
      000000A8H.6 SFRSYM    DATA     BIT       ES1
      000000A8H.1 SFRSYM    DATA     BIT       ET0
      000000A8H.3 SFRSYM    DATA     BIT       ET1
      00000088H.5 SFRSYM    DATA     BIT       TF0
      000000A8H.5 SFRSYM    DATA     BIT       ET2
      00000088H.7 SFRSYM    DATA     BIT       TF1
      00000098H.2 SFRSYM    DATA     BIT       RB8
      0000008CH   SFRSYM    DATA     BYTE      TH0
      000000A8H   SFRSYM    DATA     BIT       EX0
      0000008DH   SFRSYM    DATA     BYTE      TH1
      00000088H   SFRSYM    DATA     BIT       IT0
      000000A8H.2 SFRSYM    DATA     BIT       EX1
      00000098H.3 SFRSYM    DATA     BIT       TB8
      00000088H.2 SFRSYM    DATA     BIT       IT1
      000000D0H   SFRSYM    DATA     BIT       P
      00000098H.7 SFRSYM    DATA     BIT       SM0
      0000008AH   SFRSYM    DATA     BYTE      TL0
      00000098H.6 SFRSYM    DATA     BIT       SM1
      0000008BH   SFRSYM    DATA     BYTE      TL1
      00000098H.5 SFRSYM    DATA     BIT       SM2
      00000088H.4 SFRSYM    DATA     BIT       GATE0
      000000B8H.4 SFRSYM    DATA     BIT       PS0
      00000090H   SFRSYM    DATA     BIT       GATE1
      000000B8H.6 SFRSYM    DATA     BIT       PS1
      000000B8H.1 SFRSYM    DATA     BIT       PT0
      00000086H   SFRSYM    DATA     BYTE      WDTREL
      000000D0H.3 SFRSYM    DATA     BIT       RS0
      000000B8H.3 SFRSYM    DATA     BIT       PT1
      000000D0H.4 SFRSYM    DATA     BIT       RS1
      000000B8H.5 SFRSYM    DATA     BIT       PT2
      00000088H.4 SFRSYM    DATA     BIT       TR0
      00000088H.6 SFRSYM    DATA     BIT       TR1
      000000B8H   SFRSYM    DATA     BIT       PX0
      000000B8H.2 SFRSYM    DATA     BIT       PX1
      00000083H   SFRSYM    DATA     BYTE      DPH
      00000082H   SFRSYM    DATA     BYTE      DPL
      00000088H.6 SFRSYM    DATA     BIT       SMOD0
      00000098H.4 SFRSYM    DATA     BIT       REN
      000000D8H   SFRSYM    DATA     BYTE      ADCON
      000000FDH   SFRSYM    DATA     BYTE      EXCAH
      000000FCH   SFRSYM    DATA     BYTE      EXCAL
      0000008EH   SFRSYM    DATA     BYTE      CKCON
      000000FFH   SFRSYM    DATA     BYTE      EXCLH
      000000D0H.5 SFRSYM    DATA     BIT       F0
      000000FEH   SFRSYM    DATA     BYTE      EXCLL
      000000D0H   SFRSYM    DATA     BYTE      PSW

      01009C33H   BLOCK     CODE     ---       LVL=0
      00000002H   SYMBOL    DATA     WORD      dir_mask
      00000020H.6 SYMBOL    BIT      BIT       r_type
      01009C33H   LINE      CODE     ---       #16
      01009C37H   LINE      CODE     ---       #17
      01009C37H   LINE      CODE     ---       #18
      01009C3EH   LINE      CODE     ---       #19
      01009C3EH   LINE      CODE     ---       #20
      01009C45H   LINE      CODE     ---       #21
      01009C4EH   LINE      CODE     ---       #22
      01009C4FH   LINE      CODE     ---       #24
      01009C4FH   LINE      CODE     ---       #25
      01009C51H   LINE      CODE     ---       #26
      01009C57H   LINE      CODE     ---       #27
LX51 LINKER/LOCATER V4.47a                                                            03/27/2015  10:38:55  PAGE 76


      01009C57H   LINE      CODE     ---       #28
      ---         BLOCKEND  ---      ---       LVL=0

      01009954H   BLOCK     CODE     ---       LVL=0
      00000002H   SYMBOL    DATA     WORD      dir_mask
      00000004H   SYMBOL    DATA     WORD      int_en
      00000021H.2 SYMBOL    BIT      BIT       remote_wakeup_en
      01009954H   LINE      CODE     ---       #30
      01009958H   LINE      CODE     ---       #31
      01009958H   LINE      CODE     ---       #32
      0100995EH   LINE      CODE     ---       #33
      01009963H   LINE      CODE     ---       #34
      01009968H   LINE      CODE     ---       #35
      0100996BH   LINE      CODE     ---       #36
      01009970H   LINE      CODE     ---       #37
      01009975H   LINE      CODE     ---       #40
      0100997BH   LINE      CODE     ---       #41
      0100997EH   LINE      CODE     ---       #43
      01009981H   LINE      CODE     ---       #44
      01009981H   LINE      CODE     ---       #45
      01009986H   LINE      CODE     ---       #46
      01009989H   LINE      CODE     ---       #47
      01009989H   LINE      CODE     ---       #48
      ---         BLOCKEND  ---      ---       LVL=0

      ---         MODULE    ---      ---       MAIN_LIB
      020000D2H   PUBLIC    XDATA    BYTE      LED_DUTY
      02000080H   PUBLIC    XDATA    BYTE      I2C_MASTER_DEST_ADDR
      020000BBH   PUBLIC    XDATA    BYTE      GPIO_IO_STRENGTH
      0200009AH   PUBLIC    XDATA    BYTE      IN_SPI_CTRL
      020000F0H   PUBLIC    XDATA    BYTE      AGC_GLOBAL_CTRL
      02000011H   PUBLIC    XDATA    BYTE      PERI_INT_EN
      0200000FH   PUBLIC    XDATA    BYTE      PLAY_REC_RESOLUTION
      020000D8H   PUBLIC    XDATA    BYTE      LED3_CYCLE_TIME
      020000D6H   PUBLIC    XDATA    BYTE      LED2_CYCLE_TIME
      020000D4H   PUBLIC    XDATA    BYTE      LED1_CYCLE_TIME
      0200005FH   PUBLIC    XDATA    BYTE      VR_READ_AGC_CTRL
      02000083H   PUBLIC    XDATA    ---       I2C_MASTER_DATA
      02000044H   PUBLIC    XDATA    BYTE      EQ_D_BAND5_GAIN
      02000022H   PUBLIC    XDATA    BYTE      FIFO_MAP_SETTING
      02000043H   PUBLIC    XDATA    BYTE      EQ_D_BAND4_GAIN
      02000042H   PUBLIC    XDATA    BYTE      EQ_D_BAND3_GAIN
      020000D1H   PUBLIC    XDATA    BYTE      LED_FREQ
      02000041H   PUBLIC    XDATA    BYTE      EQ_D_BAND2_GAIN
      02000074H   PUBLIC    XDATA    BYTE      EQ_A_BAND5_GAIN
      02000040H   PUBLIC    XDATA    BYTE      EQ_D_BAND1_GAIN
      02000073H   PUBLIC    XDATA    BYTE      EQ_A_BAND4_GAIN
      020000AFH   PUBLIC    XDATA    ---       IR_RCV_DATA
      02000072H   PUBLIC    XDATA    BYTE      EQ_A_BAND3_GAIN
      020000C0H   PUBLIC    XDATA    ---       GPO_DATA
      020000E4H   PUBLIC    XDATA    ---       GPIO_PUPD_CTRL
      02000071H   PUBLIC    XDATA    BYTE      EQ_A_BAND2_GAIN
      02000070H   PUBLIC    XDATA    BYTE      EQ_A_BAND1_GAIN
      02000098H   PUBLIC    XDATA    ---       IN_SPI_DATA
      020000F4H   PUBLIC    XDATA    ---       AGC_TH_CTRL
      020000B3H   PUBLIC    XDATA    BYTE      IR_RC6_CTRL
      020000B8H   PUBLIC    XDATA    BYTE      MOD_RESET_CTRL
      02000034H   PUBLIC    XDATA    ---       I2C_SLV_STATUS
      020000C2H   PUBLIC    XDATA    ---       GPI_DATA
      02000049H   PUBLIC    XDATA    BYTE      EQ_D_SOUND_SWITCH
      020000B9H   PUBLIC    XDATA    BYTE      GAIN_TEST_PASS
      02000081H   PUBLIC    XDATA    BYTE      I2C_MASTER_MAP_L
      020000C8H   PUBLIC    XDATA    ---       GPIO_DEBOUNCE
      020000B5H   PUBLIC    XDATA    BYTE      MCU_CLK_SWITCH
      02000082H   PUBLIC    XDATA    BYTE      I2C_MASTER_MAP_H
LX51 LINKER/LOCATER V4.47a                                                            03/27/2015  10:38:55  PAGE 77


      02000001H   PUBLIC    XDATA    BYTE      USB_ADDRESS
      02000036H   PUBLIC    XDATA    BYTE      I2C_SLV_MAP
      020000A9H   PUBLIC    XDATA    ---       IR_REPEAT_CODE_CTRL
      02000012H   PUBLIC    XDATA    BYTE      PERI2_INT_STAT
      02000057H   PUBLIC    XDATA    BYTE      EXT_I2S_FORMAT
      02000002H   PUBLIC    XDATA    BYTE      USB_GLOBAL_INT
      02000058H   PUBLIC    XDATA    BYTE      PLL_PD_DAC_DIS
      0200005AH   PUBLIC    XDATA    BYTE      REC_SRC_TEST_SETTING
      0200006BH   PUBLIC    XDATA    BYTE      UART_TX_DATA
      0200006AH   PUBLIC    XDATA    BYTE      UART_RX_DATA
      0200004AH   PUBLIC    XDATA    BYTE      EQ_D_MODE_SETTING
      02000007H   PUBLIC    XDATA    BYTE      USB_EP_FIFO_RST
      02000016H   PUBLIC    XDATA    BYTE      ISO_OUT_FWP_L
      020000D9H   PUBLIC    XDATA    BYTE      BONDING_OPTION
      02000003H   PUBLIC    XDATA    BYTE      USB_GLOBAL_INT_EN
      0200006CH   PUBLIC    XDATA    BYTE      DIGITAL_MIC_SETTING
      02000017H   PUBLIC    XDATA    BYTE      ISO_OUT_FWP_H
      02000014H   PUBLIC    XDATA    BYTE      ISO_OUT_FRP_L
      02000039H   PUBLIC    XDATA    ---       EXT_SPI_DATA
      02000018H   PUBLIC    XDATA    BYTE      ISO_OUT_FSN_L
      02000047H   PUBLIC    XDATA    BYTE      EQ_D_COEFF_X
      02000006H   PUBLIC    XDATA    BYTE      USB_EP_STAT_X
      02000015H   PUBLIC    XDATA    BYTE      ISO_OUT_FRP_H
      02000066H   PUBLIC    XDATA    ---       SPDIF_IN_STATUS
      02000019H   PUBLIC    XDATA    BYTE      ISO_OUT_FSN_H
      02000077H   PUBLIC    XDATA    BYTE      EQ_A_COEFF_X
      020000A0H   PUBLIC    XDATA    ---       IR_LOGIC1_CTRL
      020000A3H   PUBLIC    XDATA    ---       IR_LOGIC0_CTRL
      020000B6H   PUBLIC    XDATA    ---       MOD_CLK_CTRL
      02000004H   PUBLIC    XDATA    BYTE      USB_EP_NUM
      0200005BH   PUBLIC    XDATA    ---       DAC_VOL_CTRL
      0200005DH   PUBLIC    XDATA    ---       ADC_VOL_CTRL
      020000ACH   PUBLIC    XDATA    ---       IR_CTRL
      02000005H   PUBLIC    XDATA    BYTE      USB_EP_CTRL_X
      02000053H   PUBLIC    XDATA    BYTE      UART_BAUDRATE_SEL
      02000008H   PUBLIC    XDATA    BYTE      USB_EP_INT
      020000F8H   PUBLIC    XDATA    BYTE      AGC_SIM_CTRL
      02000045H   PUBLIC    XDATA    BYTE      EQ_D_DIS_TEST_MODE
      02000013H   PUBLIC    XDATA    BYTE      PERI2_INT_EN
      020000A6H   PUBLIC    XDATA    ---       IR_HEAD_CODE_CTRL
      02000075H   PUBLIC    XDATA    BYTE      EQ_A_DIS_TEST_MODE
      02000009H   PUBLIC    XDATA    BYTE      USB_EP_INT_EN
      02000037H   PUBLIC    XDATA    BYTE      I2C_SLV_SYN_ACK
      020000FFH   PUBLIC    XDATA    BYTE      CTRL_REG_L_ADDR
      0200000EH   PUBLIC    XDATA    BYTE      ADC_DAC_FORMAT
      02000060H   PUBLIC    XDATA    ---       SPDIF_FNUC_CTRL
      02000010H   PUBLIC    XDATA    BYTE      PERI_INT_STAT
      020000DAH   PUBLIC    XDATA    ---       GPO_SWITCH
      020000FEH   PUBLIC    XDATA    BYTE      CTRL_REG_H_ADDR
      020000CAH   PUBLIC    XDATA    BYTE      LED_BUZZ_CTRL
      020000E2H   PUBLIC    XDATA    ---       GPI_REMOTE_WAKE
      02000063H   PUBLIC    XDATA    ---       SPDIF_OUT_STATUS
      020000D7H   PUBLIC    XDATA    BYTE      LED3_ON_TIME
      02000095H   PUBLIC    XDATA    BYTE      I2C_MASTER_CTRL_2
      020000D5H   PUBLIC    XDATA    BYTE      LED2_ON_TIME
      02000000H   PUBLIC    XDATA    BYTE      USB_GLOBAL_CTRL
      02000094H   PUBLIC    XDATA    BYTE      I2C_MASTER_CTRL_1
      020000D3H   PUBLIC    XDATA    BYTE      LED1_ON_TIME
      0200000AH   PUBLIC    XDATA    BYTE      USB_EP_DATA_X
      02000093H   PUBLIC    XDATA    BYTE      I2C_MASTER_CTRL_0
      020000B4H   PUBLIC    XDATA    BYTE      USB_PHY_POW
      020000F9H   PUBLIC    XDATA    BYTE      AGC_MAX_GAIN
      020000E8H   PUBLIC    XDATA    BYTE      SHARE_MCU_PORT0
      020000FAH   PUBLIC    XDATA    BYTE      AGC_MIN_GAIN
      02000030H   PUBLIC    XDATA    ---       I2C_SLV_DATA
LX51 LINKER/LOCATER V4.47a                                                            03/27/2015  10:38:55  PAGE 78


      00000021H.4 PUBLIC    BIT      BIT       g_bmUsbPuReset
      02000056H   PUBLIC    XDATA    BYTE      PLL_ADAPTIVE_EN
      020000BAH   PUBLIC    XDATA    BYTE      CODEC_TEST_MONITOR
      0200003EH   PUBLIC    XDATA    BYTE      EXT_SPI_INT
      020000C6H   PUBLIC    XDATA    ---       GPIO_INT_MASK
      020000BFH   PUBLIC    XDATA    BYTE      TEST_MODE_THD
      020000C4H   PUBLIC    XDATA    ---       GPIO_DIR_CTRL
      02000059H   PUBLIC    XDATA    BYTE      EXTERN_I2S_AND_DSP
      02000062H   PUBLIC    XDATA    BYTE      SPDIF_IN_INT_STATUS
      02000046H   PUBLIC    XDATA    BYTE      EQ_D_BAND_NUM
      02000076H   PUBLIC    XDATA    BYTE      EQ_A_BAND_NUM
      0100A0C4H   PUBLIC    CONST    ---       FeedbakTbl
      01009DFFH   PUBLIC    CODE     ---       _MemZero
      00000054H   PUBLIC    DATA     BYTE      ?_M2MCopy?BYTE
      01009C9EH   PUBLIC    CODE     ---       _M2MCopy
      00000054H   PUBLIC    DATA     BYTE      ?_C2MCopy?BYTE
      01009ABCH   PUBLIC    CODE     ---       _C2MCopy
      00000020H.6 PUBLIC    BIT      BIT       ?DacCodecReset?BIT
      0100939BH   PUBLIC    CODE     ---       DacCodecReset
      00000020H.6 PUBLIC    BIT      BIT       ?AdcCodecReset?BIT
      010093F4H   PUBLIC    CODE     ---       AdcCodecReset
      01009D04H   PUBLIC    CODE     ---       AntiPopProcedure
      01009340H   PUBLIC    CODE     ---       DelayAnalogMute
      010089E6H   PUBLIC    CODE     ---       HubInSuspend
      01009D5DH   PUBLIC    CODE     ---       POR_Init
      00000080H   SFRSYM    DATA     BYTE      P0
      00000090H   SFRSYM    DATA     BYTE      P1
      000000A0H   SFRSYM    DATA     BYTE      P2
      000000B0H   SFRSYM    DATA     BYTE      P3
      000000D0H.6 SFRSYM    DATA     BIT       AC
      000000A8H.7 SFRSYM    DATA     BIT       EA
      000000A8H   SFRSYM    DATA     BYTE      IE
      000000D0H.1 SFRSYM    DATA     BIT       FL
      000000B8H   SFRSYM    DATA     BYTE      IP
      00000098H   SFRSYM    DATA     BIT       RI
      000000D0H.7 SFRSYM    DATA     BIT       CY
      00000098H.1 SFRSYM    DATA     BIT       TI
      00000080H.7 SFRSYM    DATA     BIT       IDLE
      00000081H   SFRSYM    DATA     BYTE      SP
      000000D0H.2 SFRSYM    DATA     BIT       OV
      000000FBH   SFRSYM    DATA     BYTE      PIDH
      000000FAH   SFRSYM    DATA     BYTE      PIDL
      000000F9H   SFRSYM    DATA     BYTE      VIDH
      00000088H.1 SFRSYM    DATA     BIT       M00
      00000088H.5 SFRSYM    DATA     BIT       M01
      00000088H.2 SFRSYM    DATA     BIT       M10
      00000088H.6 SFRSYM    DATA     BIT       M11
      000000F8H   SFRSYM    DATA     BYTE      VIDL
      000000BAH   SFRSYM    DATA     BYTE      S0RELH
      00000099H   SFRSYM    DATA     BYTE      SBUF
      00000087H   SFRSYM    DATA     BYTE      PCON
      000000AAH   SFRSYM    DATA     BYTE      S0RELL
      00000098H   SFRSYM    DATA     BYTE      SCON
      00000089H   SFRSYM    DATA     BYTE      TMOD
      00000088H   SFRSYM    DATA     BYTE      TCON
      00000088H.1 SFRSYM    DATA     BIT       GF0
      00000088H.1 SFRSYM    DATA     BIT       IE0
      00000088H.2 SFRSYM    DATA     BIT       GF1
      00000088H.3 SFRSYM    DATA     BIT       IE1
      000000F0H   SFRSYM    DATA     BYTE      B
      000000E0H   SFRSYM    DATA     BYTE      ACC
      00000088H.3 SFRSYM    DATA     BIT       CT0
      00000088H   SFRSYM    DATA     BIT       STOP
      000000A8H.4 SFRSYM    DATA     BIT       ES0
      00000088H.7 SFRSYM    DATA     BIT       CT1
LX51 LINKER/LOCATER V4.47a                                                            03/27/2015  10:38:55  PAGE 79


      000000A8H.6 SFRSYM    DATA     BIT       ES1
      000000A8H.1 SFRSYM    DATA     BIT       ET0
      000000A8H.3 SFRSYM    DATA     BIT       ET1
      00000088H.5 SFRSYM    DATA     BIT       TF0
      000000A8H.5 SFRSYM    DATA     BIT       ET2
      00000088H.7 SFRSYM    DATA     BIT       TF1
      00000098H.2 SFRSYM    DATA     BIT       RB8
      0000008CH   SFRSYM    DATA     BYTE      TH0
      000000A8H   SFRSYM    DATA     BIT       EX0
      0000008DH   SFRSYM    DATA     BYTE      TH1
      00000088H   SFRSYM    DATA     BIT       IT0
      000000A8H.2 SFRSYM    DATA     BIT       EX1
      00000098H.3 SFRSYM    DATA     BIT       TB8
      00000088H.2 SFRSYM    DATA     BIT       IT1
      000000D0H   SFRSYM    DATA     BIT       P
      00000098H.7 SFRSYM    DATA     BIT       SM0
      0000008AH   SFRSYM    DATA     BYTE      TL0
      00000098H.6 SFRSYM    DATA     BIT       SM1
      0000008BH   SFRSYM    DATA     BYTE      TL1
      00000098H.5 SFRSYM    DATA     BIT       SM2
      00000088H.4 SFRSYM    DATA     BIT       GATE0
      000000B8H.4 SFRSYM    DATA     BIT       PS0
      00000090H   SFRSYM    DATA     BIT       GATE1
      000000B8H.6 SFRSYM    DATA     BIT       PS1
      000000B8H.1 SFRSYM    DATA     BIT       PT0
      00000086H   SFRSYM    DATA     BYTE      WDTREL
      000000D0H.3 SFRSYM    DATA     BIT       RS0
      000000B8H.3 SFRSYM    DATA     BIT       PT1
      000000D0H.4 SFRSYM    DATA     BIT       RS1
      000000B8H.5 SFRSYM    DATA     BIT       PT2
      00000088H.4 SFRSYM    DATA     BIT       TR0
      00000088H.6 SFRSYM    DATA     BIT       TR1
      000000B8H   SFRSYM    DATA     BIT       PX0
      000000B8H.2 SFRSYM    DATA     BIT       PX1
      00000083H   SFRSYM    DATA     BYTE      DPH
      00000082H   SFRSYM    DATA     BYTE      DPL
      00000088H.6 SFRSYM    DATA     BIT       SMOD0
      00000098H.4 SFRSYM    DATA     BIT       REN
      000000D8H   SFRSYM    DATA     BYTE      ADCON
      000000FDH   SFRSYM    DATA     BYTE      EXCAH
      000000FCH   SFRSYM    DATA     BYTE      EXCAL
      0000008EH   SFRSYM    DATA     BYTE      CKCON
      000000FFH   SFRSYM    DATA     BYTE      EXCLH
      000000D0H.5 SFRSYM    DATA     BIT       F0
      000000FEH   SFRSYM    DATA     BYTE      EXCLL
      000000D0H   SFRSYM    DATA     BYTE      PSW

      01009E90H   BLOCK     CODE     ---       LVL=0
      ---         BLOCKEND  ---      ---       LVL=0

      01009D5DH   BLOCK     CODE     ---       LVL=0
      01009D5DH   LINE      CODE     ---       #37
      01009D5DH   LINE      CODE     ---       #38
      01009D5DH   LINE      CODE     ---       #39
      01009D64H   LINE      CODE     ---       #40
      01009D67H   LINE      CODE     ---       #41
      01009D69H   LINE      CODE     ---       #42
      01009D70H   LINE      CODE     ---       #45
      01009D73H   LINE      CODE     ---       #46
      01009D76H   LINE      CODE     ---       #49
      01009D79H   LINE      CODE     ---       #50
      ---         BLOCKEND  ---      ---       LVL=0

      010089E6H   BLOCK     CODE     ---       LVL=0
      010089E6H   BLOCK     CODE     NEAR LAB  LVL=1
LX51 LINKER/LOCATER V4.47a                                                            03/27/2015  10:38:55  PAGE 80


      00000053H   SYMBOL    DATA     BYTE      temp
      ---         BLOCKEND  ---      ---       LVL=1
      010089E6H   LINE      CODE     ---       #52
      010089E6H   LINE      CODE     ---       #53
      010089E6H   LINE      CODE     ---       #56
      010089E6H   LINE      CODE     ---       #57
      010089E6H   LINE      CODE     ---       #58
      010089E9H   LINE      CODE     ---       #59
      010089E9H   LINE      CODE     ---       #61
      010089ECH   LINE      CODE     ---       #62
      010089EEH   LINE      CODE     ---       #63
      010089F0H   LINE      CODE     ---       #64
      010089F2H   LINE      CODE     ---       #65
      010089F4H   LINE      CODE     ---       #68
      010089FBH   LINE      CODE     ---       #70
      01008A02H   LINE      CODE     ---       #72
      01008A05H   LINE      CODE     ---       #73
      01008A07H   LINE      CODE     ---       #74
      01008A09H   LINE      CODE     ---       #75
      01008A2CH   LINE      CODE     ---       #76
      01008A2CH   LINE      CODE     ---       #77
      01008A2FH   LINE      CODE     ---       #79
      01008A39H   LINE      CODE     ---       #82
      01008A40H   LINE      CODE     ---       #83
      01008A40H   LINE      CODE     ---       #85
      01008A42H   LINE      CODE     ---       #86
      01008A46H   LINE      CODE     ---       #88
      01008A48H   LINE      CODE     ---       #89
      01008A4AH   LINE      CODE     ---       #90
      01008A4CH   LINE      CODE     ---       #92
      01008A68H   LINE      CODE     ---       #93
      01008A68H   LINE      CODE     ---       #95
      01008A76H   LINE      CODE     ---       #98
      01008A7BH   LINE      CODE     ---       #99
      01008A82H   LINE      CODE     ---       #100
      01008A89H   LINE      CODE     ---       #102
      01008A8AH   LINE      CODE     ---       #103
      01008A8BH   LINE      CODE     ---       #104
      01008A8CH   LINE      CODE     ---       #105
      01008A8DH   LINE      CODE     ---       #107
      01008A91H   LINE      CODE     ---       #108
      01008A98H   LINE      CODE     ---       #109
      01008A98H   LINE      CODE     ---       #110
      ---         BLOCKEND  ---      ---       LVL=0

      01009340H   BLOCK     CODE     ---       LVL=0
      01009340H   BLOCK     CODE     NEAR LAB  LVL=1
      00000004H   SYMBOL    DATA     WORD      temp
      ---         BLOCKEND  ---      ---       LVL=1
      01009340H   LINE      CODE     ---       #112
      01009340H   LINE      CODE     ---       #113
      01009340H   LINE      CODE     ---       #116
      01009342H   LINE      CODE     ---       #117
      0100935AH   LINE      CODE     ---       #118
      01009361H   LINE      CODE     ---       #120
      01009363H   LINE      CODE     ---       #121
      01009365H   LINE      CODE     ---       #122
      01009367H   LINE      CODE     ---       #123
      01009369H   LINE      CODE     ---       #124
      0100936BH   LINE      CODE     ---       #125
      0100936EH   LINE      CODE     ---       #126
      0100936EH   LINE      CODE     ---       #127
      01009371H   LINE      CODE     ---       #128
      01009373H   LINE      CODE     ---       #129
      01009375H   LINE      CODE     ---       #130
LX51 LINKER/LOCATER V4.47a                                                            03/27/2015  10:38:55  PAGE 81


      01009377H   LINE      CODE     ---       #131
      0100937AH   LINE      CODE     ---       #132
      0100937CH   LINE      CODE     ---       #135
      0100938AH   LINE      CODE     ---       #138
      01009398H   LINE      CODE     ---       #141
      0100939AH   LINE      CODE     ---       #142
      ---         BLOCKEND  ---      ---       LVL=0

      01009D04H   BLOCK     CODE     ---       LVL=0
      01009D04H   LINE      CODE     ---       #144
      01009D04H   LINE      CODE     ---       #145
      01009D04H   LINE      CODE     ---       #148
      01009D12H   LINE      CODE     ---       #151
      01009D20H   LINE      CODE     ---       #154
      ---         BLOCKEND  ---      ---       LVL=0

      010093F4H   BLOCK     CODE     ---       LVL=0
      00000020H.6 SYMBOL    BIT      BIT       ext_i2s
      00000020H.7 SYMBOL    BIT      BIT       slv
      00000021H.0 SYMBOL    BIT      BIT       mclk_out
      00000021H.1 SYMBOL    BIT      BIT       dsp_mode
      010093F4H   LINE      CODE     ---       #157
      010093F4H   LINE      CODE     ---       #158
      010093F4H   LINE      CODE     ---       #159
      010093FBH   LINE      CODE     ---       #161
      01009401H   LINE      CODE     ---       #162
      01009401H   LINE      CODE     ---       #163
      01009408H   LINE      CODE     ---       #164
      01009408H   LINE      CODE     ---       #165
      0100940BH   LINE      CODE     ---       #166
      0100940DH   LINE      CODE     ---       #167
      0100940FH   LINE      CODE     ---       #169
      0100940FH   LINE      CODE     ---       #170
      01009414H   LINE      CODE     ---       #171
      01009414H   LINE      CODE     ---       #173
      01009417H   LINE      CODE     ---       #174
      01009417H   LINE      CODE     ---       #175
      0100941EH   LINE      CODE     ---       #176
      0100941EH   LINE      CODE     ---       #177
      01009420H   LINE      CODE     ---       #179
      01009420H   LINE      CODE     ---       #180
      01009429H   LINE      CODE     ---       #181
      01009429H   LINE      CODE     ---       #183
      0100942CH   LINE      CODE     ---       #184
      0100942CH   LINE      CODE     ---       #185
      01009433H   LINE      CODE     ---       #187
      0100943AH   LINE      CODE     ---       #188
      0100943AH   LINE      CODE     ---       #189
      0100943DH   LINE      CODE     ---       #190
      0100943EH   LINE      CODE     ---       #192
      0100943EH   LINE      CODE     ---       #193
      01009441H   LINE      CODE     ---       #194
      01009441H   LINE      CODE     ---       #195
      01009442H   LINE      CODE     ---       #197
      01009442H   LINE      CODE     ---       #198
      01009449H   LINE      CODE     ---       #199
      01009449H   LINE      CODE     ---       #200
      ---         BLOCKEND  ---      ---       LVL=0

      0100939BH   BLOCK     CODE     ---       LVL=0
      00000020H.6 SYMBOL    BIT      BIT       ext_i2s
      00000020H.7 SYMBOL    BIT      BIT       slv
      00000021H.0 SYMBOL    BIT      BIT       mclk_out
      00000021H.1 SYMBOL    BIT      BIT       dsp_mode
      0100939BH   LINE      CODE     ---       #202
LX51 LINKER/LOCATER V4.47a                                                            03/27/2015  10:38:55  PAGE 82


      0100939BH   LINE      CODE     ---       #203
      0100939BH   LINE      CODE     ---       #204
      010093A2H   LINE      CODE     ---       #206
      010093A8H   LINE      CODE     ---       #207
      010093A8H   LINE      CODE     ---       #208
      010093AFH   LINE      CODE     ---       #209
      010093AFH   LINE      CODE     ---       #210
      010093B2H   LINE      CODE     ---       #211
      010093B4H   LINE      CODE     ---       #213
      010093B4H   LINE      CODE     ---       #214
      010093B9H   LINE      CODE     ---       #215
      010093B9H   LINE      CODE     ---       #217
      010093C0H   LINE      CODE     ---       #219
      010093C3H   LINE      CODE     ---       #220
      010093C3H   LINE      CODE     ---       #221
      010093C7H   LINE      CODE     ---       #222
      010093C7H   LINE      CODE     ---       #223
      010093C9H   LINE      CODE     ---       #225
      010093C9H   LINE      CODE     ---       #226
      010093D2H   LINE      CODE     ---       #227
      010093D2H   LINE      CODE     ---       #229
      010093D5H   LINE      CODE     ---       #230
      010093D5H   LINE      CODE     ---       #231
      010093DCH   LINE      CODE     ---       #232
      010093DCH   LINE      CODE     ---       #233
      010093DFH   LINE      CODE     ---       #234
      010093E1H   LINE      CODE     ---       #236
      010093E1H   LINE      CODE     ---       #237
      010093E4H   LINE      CODE     ---       #238
      010093E4H   LINE      CODE     ---       #240
      010093EBH   LINE      CODE     ---       #241
      010093ECH   LINE      CODE     ---       #243
      010093ECH   LINE      CODE     ---       #244
      010093F3H   LINE      CODE     ---       #245
      010093F3H   LINE      CODE     ---       #246
      ---         BLOCKEND  ---      ---       LVL=0

      01009ABCH   BLOCK     CODE     ---       LVL=0
      00000054H   SYMBOL    DATA     ---       dest
      00000057H   SYMBOL    DATA     ---       src
      00000059H   SYMBOL    DATA     BYTE      size
      01009AC6H   BLOCK     CODE     NEAR LAB  LVL=1
      00000007H   SYMBOL    DATA     BYTE      index
      ---         BLOCKEND  ---      ---       LVL=1
      01009ABCH   LINE      CODE     ---       #248
      01009AC6H   LINE      CODE     ---       #249
      01009AC6H   LINE      CODE     ---       #252
      01009ACEH   LINE      CODE     ---       #253
      01009ACEH   LINE      CODE     ---       #254
      01009AE8H   LINE      CODE     ---       #255
      01009AEBH   LINE      CODE     ---       #256
      ---         BLOCKEND  ---      ---       LVL=0

      01009C9EH   BLOCK     CODE     ---       LVL=0
      00000054H   SYMBOL    DATA     ---       dest
      00000057H   SYMBOL    DATA     ---       src
      0000005AH   SYMBOL    DATA     BYTE      size
      01009CA4H   BLOCK     CODE     NEAR LAB  LVL=1
      00000007H   SYMBOL    DATA     BYTE      index
      ---         BLOCKEND  ---      ---       LVL=1
      01009C9EH   LINE      CODE     ---       #258
      01009CA4H   LINE      CODE     ---       #259
      01009CA4H   LINE      CODE     ---       #262
      01009CACH   LINE      CODE     ---       #263
      01009CACH   LINE      CODE     ---       #264
LX51 LINKER/LOCATER V4.47a                                                            03/27/2015  10:38:55  PAGE 83


      01009CBDH   LINE      CODE     ---       #265
      01009CC0H   LINE      CODE     ---       #266
      ---         BLOCKEND  ---      ---       LVL=0

      01009DFFH   BLOCK     CODE     ---       LVL=0
      00000053H   SYMBOL    DATA     ---       dest
      00000005H   SYMBOL    DATA     BYTE      size
      01009E05H   BLOCK     CODE     NEAR LAB  LVL=1
      00000007H   SYMBOL    DATA     BYTE      index
      ---         BLOCKEND  ---      ---       LVL=1
      01009DFFH   LINE      CODE     ---       #268
      01009E05H   LINE      CODE     ---       #269
      01009E05H   LINE      CODE     ---       #272
      01009E0CH   LINE      CODE     ---       #273
      01009E0CH   LINE      CODE     ---       #274
      01009E15H   LINE      CODE     ---       #275
      01009E18H   LINE      CODE     ---       #276
      ---         BLOCKEND  ---      ---       LVL=0

      ---         MODULE    ---      ---       ?C?CLDPTR
      01008360H   PUBLIC    CODE     ---       ?C?CLDPTR

      ---         MODULE    ---      ---       ?C?CLDOPTR
      01008379H   PUBLIC    CODE     ---       ?C?CLDOPTR

      ---         MODULE    ---      ---       ?C?CSTPTR
      010083A6H   PUBLIC    CODE     ---       ?C?CSTPTR

      ---         MODULE    ---      ---       ?C?CSTOPTR
      010083B8H   PUBLIC    CODE     ---       ?C?CSTOPTR

      ---         MODULE    ---      ---       ?C?IMUL
      010083DAH   PUBLIC    CODE     ---       ?C?IMUL

      ---         MODULE    ---      ---       ?C?OFFXADD
      010083ECH   PUBLIC    CODE     ---       ?C?OFFXADD

      ---         MODULE    ---      ---       ?C?PLDIIDATA
      010083F8H   PUBLIC    CODE     ---       ?C?PLDIIDATA

      ---         MODULE    ---      ---       ?C?PLDCODE
      01008408H   PUBLIC    CODE     ---       ?C?PLDCODE

      ---         MODULE    ---      ---       ?C?CCASE
      01008414H   PUBLIC    CODE     ---       ?C?CCASE

      ---         MODULE    ---      ---       ?C?ICALL
      0100843AH   PUBLIC    CODE     ---       ?C?ICALL
      0100843EH   PUBLIC    CODE     ---       ?C?ICALL2



*** WARNING L16: UNCALLED FUNCTION, IGNORED FOR OVERLAY PROCESS
    NAME:    INT0_ISR/INT

*** WARNING L16: UNCALLED FUNCTION, IGNORED FOR OVERLAY PROCESS
    NAME:    TIMER0_ISR/INT

*** WARNING L16: UNCALLED FUNCTION, IGNORED FOR OVERLAY PROCESS
    NAME:    INT1_ISR/INT

*** WARNING L16: UNCALLED FUNCTION, IGNORED FOR OVERLAY PROCESS
    NAME:    TIMER1_ISR/INT

*** WARNING L16: UNCALLED FUNCTION, IGNORED FOR OVERLAY PROCESS
LX51 LINKER/LOCATER V4.47a                                                            03/27/2015  10:38:55  PAGE 84


    NAME:    UART_ISR/INT

*** WARNING L16: UNCALLED FUNCTION, IGNORED FOR OVERLAY PROCESS
    NAME:    UARTBAUDRATEINIT/PERI_LIB

*** WARNING L16: UNCALLED FUNCTION, IGNORED FOR OVERLAY PROCESS
    NAME:    I2CMASTERREAD/PERI_LIB

*** WARNING L16: UNCALLED FUNCTION, IGNORED FOR OVERLAY PROCESS
    NAME:    I2CMASTERWRITE/PERI_LIB

*** WARNING L16: UNCALLED FUNCTION, IGNORED FOR OVERLAY PROCESS
    NAME:    _MODIRRESET/PERI_LIB

*** WARNING L16: UNCALLED FUNCTION, IGNORED FOR OVERLAY PROCESS
    NAME:    HANDLEI2CSLAVE/PERI_LIB

*** WARNING L16: UNCALLED FUNCTION, IGNORED FOR OVERLAY PROCESS
    NAME:    HANDLESPISLAVE/PERI_LIB

*** WARNING L16: UNCALLED FUNCTION, IGNORED FOR OVERLAY PROCESS
    NAME:    ?CO?MAIN_LIB

Program Size: data=189.5 xdata=197 const=195 code=8697
LX51 RUN COMPLETE.  12 WARNING(S),  0 ERROR(S)
